
stm32SolderingStation.elf:     file format elf32-littlearm

Sections:
Idx Name          Size      VMA       LMA       File off  Algn
  0 .isr_vector   0000010c  08000000  08000000  00010000  2**0
                  CONTENTS, ALLOC, LOAD, READONLY, DATA
  1 .text         000039e4  0800010c  0800010c  0001010c  2**2
                  CONTENTS, ALLOC, LOAD, READONLY, CODE
  2 .rodata       00000058  08003af0  08003af0  00013af0  2**1
                  CONTENTS, ALLOC, LOAD, READONLY, DATA
  3 .ARM.extab    00000000  08003b48  08003b48  00020034  2**0
                  CONTENTS
  4 .ARM          00000000  08003b48  08003b48  00020034  2**0
                  CONTENTS
  5 .preinit_array 00000000  08003b48  08003b48  00020034  2**0
                  CONTENTS, ALLOC, LOAD, DATA
  6 .init_array   00000004  08003b48  08003b48  00013b48  2**2
                  CONTENTS, ALLOC, LOAD, DATA
  7 .fini_array   00000004  08003b4c  08003b4c  00013b4c  2**2
                  CONTENTS, ALLOC, LOAD, DATA
  8 .data         00000034  20000000  08003b50  00020000  2**2
                  CONTENTS, ALLOC, LOAD, DATA
  9 .bss          0000065c  20000034  08003b84  00020034  2**2
                  ALLOC
 10 ._user_heap_stack 00000600  20000690  08003b84  00020690  2**0
                  ALLOC
 11 .ARM.attributes 00000029  00000000  00000000  00020034  2**0
                  CONTENTS, READONLY
 12 .comment      00000043  00000000  00000000  0002005d  2**0
                  CONTENTS, READONLY
 13 .debug_frame  000001dc  00000000  00000000  000200a0  2**2
                  CONTENTS, READONLY, DEBUGGING, OCTETS

Disassembly of section .text:

0800010c <__do_global_dtors_aux>:
 800010c:	b510      	push	{r4, lr}
 800010e:	4c05      	ldr	r4, [pc, #20]	; (8000124 <__do_global_dtors_aux+0x18>)
 8000110:	7823      	ldrb	r3, [r4, #0]
 8000112:	b933      	cbnz	r3, 8000122 <__do_global_dtors_aux+0x16>
 8000114:	4b04      	ldr	r3, [pc, #16]	; (8000128 <__do_global_dtors_aux+0x1c>)
 8000116:	b113      	cbz	r3, 800011e <__do_global_dtors_aux+0x12>
 8000118:	4804      	ldr	r0, [pc, #16]	; (800012c <__do_global_dtors_aux+0x20>)
 800011a:	f3af 8000 	nop.w
 800011e:	2301      	movs	r3, #1
 8000120:	7023      	strb	r3, [r4, #0]
 8000122:	bd10      	pop	{r4, pc}
 8000124:	20000034 	.word	0x20000034
 8000128:	00000000 	.word	0x00000000
 800012c:	08003ad8 	.word	0x08003ad8

08000130 <frame_dummy>:
 8000130:	b508      	push	{r3, lr}
 8000132:	4b03      	ldr	r3, [pc, #12]	; (8000140 <frame_dummy+0x10>)
 8000134:	b11b      	cbz	r3, 800013e <frame_dummy+0xe>
 8000136:	4903      	ldr	r1, [pc, #12]	; (8000144 <frame_dummy+0x14>)
 8000138:	4803      	ldr	r0, [pc, #12]	; (8000148 <frame_dummy+0x18>)
 800013a:	f3af 8000 	nop.w
 800013e:	bd08      	pop	{r3, pc}
 8000140:	00000000 	.word	0x00000000
 8000144:	20000038 	.word	0x20000038
 8000148:	08003ad8 	.word	0x08003ad8

0800014c <__aeabi_frsub>:
 800014c:	f080 4000 	eor.w	r0, r0, #2147483648	; 0x80000000
 8000150:	e002      	b.n	8000158 <__addsf3>
 8000152:	bf00      	nop

08000154 <__aeabi_fsub>:
 8000154:	f081 4100 	eor.w	r1, r1, #2147483648	; 0x80000000

08000158 <__addsf3>:
 8000158:	0042      	lsls	r2, r0, #1
 800015a:	bf1f      	itttt	ne
 800015c:	ea5f 0341 	movsne.w	r3, r1, lsl #1
 8000160:	ea92 0f03 	teqne	r2, r3
 8000164:	ea7f 6c22 	mvnsne.w	ip, r2, asr #24
 8000168:	ea7f 6c23 	mvnsne.w	ip, r3, asr #24
 800016c:	d06a      	beq.n	8000244 <__addsf3+0xec>
 800016e:	ea4f 6212 	mov.w	r2, r2, lsr #24
 8000172:	ebd2 6313 	rsbs	r3, r2, r3, lsr #24
 8000176:	bfc1      	itttt	gt
 8000178:	18d2      	addgt	r2, r2, r3
 800017a:	4041      	eorgt	r1, r0
 800017c:	4048      	eorgt	r0, r1
 800017e:	4041      	eorgt	r1, r0
 8000180:	bfb8      	it	lt
 8000182:	425b      	neglt	r3, r3
 8000184:	2b19      	cmp	r3, #25
 8000186:	bf88      	it	hi
 8000188:	4770      	bxhi	lr
 800018a:	f010 4f00 	tst.w	r0, #2147483648	; 0x80000000
 800018e:	f440 0000 	orr.w	r0, r0, #8388608	; 0x800000
 8000192:	f020 407f 	bic.w	r0, r0, #4278190080	; 0xff000000
 8000196:	bf18      	it	ne
 8000198:	4240      	negne	r0, r0
 800019a:	f011 4f00 	tst.w	r1, #2147483648	; 0x80000000
 800019e:	f441 0100 	orr.w	r1, r1, #8388608	; 0x800000
 80001a2:	f021 417f 	bic.w	r1, r1, #4278190080	; 0xff000000
 80001a6:	bf18      	it	ne
 80001a8:	4249      	negne	r1, r1
 80001aa:	ea92 0f03 	teq	r2, r3
 80001ae:	d03f      	beq.n	8000230 <__addsf3+0xd8>
 80001b0:	f1a2 0201 	sub.w	r2, r2, #1
 80001b4:	fa41 fc03 	asr.w	ip, r1, r3
 80001b8:	eb10 000c 	adds.w	r0, r0, ip
 80001bc:	f1c3 0320 	rsb	r3, r3, #32
 80001c0:	fa01 f103 	lsl.w	r1, r1, r3
 80001c4:	f000 4300 	and.w	r3, r0, #2147483648	; 0x80000000
 80001c8:	d502      	bpl.n	80001d0 <__addsf3+0x78>
 80001ca:	4249      	negs	r1, r1
 80001cc:	eb60 0040 	sbc.w	r0, r0, r0, lsl #1
 80001d0:	f5b0 0f00 	cmp.w	r0, #8388608	; 0x800000
 80001d4:	d313      	bcc.n	80001fe <__addsf3+0xa6>
 80001d6:	f1b0 7f80 	cmp.w	r0, #16777216	; 0x1000000
 80001da:	d306      	bcc.n	80001ea <__addsf3+0x92>
 80001dc:	0840      	lsrs	r0, r0, #1
 80001de:	ea4f 0131 	mov.w	r1, r1, rrx
 80001e2:	f102 0201 	add.w	r2, r2, #1
 80001e6:	2afe      	cmp	r2, #254	; 0xfe
 80001e8:	d251      	bcs.n	800028e <__addsf3+0x136>
 80001ea:	f1b1 4f00 	cmp.w	r1, #2147483648	; 0x80000000
 80001ee:	eb40 50c2 	adc.w	r0, r0, r2, lsl #23
 80001f2:	bf08      	it	eq
 80001f4:	f020 0001 	biceq.w	r0, r0, #1
 80001f8:	ea40 0003 	orr.w	r0, r0, r3
 80001fc:	4770      	bx	lr
 80001fe:	0049      	lsls	r1, r1, #1
 8000200:	eb40 0000 	adc.w	r0, r0, r0
 8000204:	3a01      	subs	r2, #1
 8000206:	bf28      	it	cs
 8000208:	f5b0 0f00 	cmpcs.w	r0, #8388608	; 0x800000
 800020c:	d2ed      	bcs.n	80001ea <__addsf3+0x92>
 800020e:	fab0 fc80 	clz	ip, r0
 8000212:	f1ac 0c08 	sub.w	ip, ip, #8
 8000216:	ebb2 020c 	subs.w	r2, r2, ip
 800021a:	fa00 f00c 	lsl.w	r0, r0, ip
 800021e:	bfaa      	itet	ge
 8000220:	eb00 50c2 	addge.w	r0, r0, r2, lsl #23
 8000224:	4252      	neglt	r2, r2
 8000226:	4318      	orrge	r0, r3
 8000228:	bfbc      	itt	lt
 800022a:	40d0      	lsrlt	r0, r2
 800022c:	4318      	orrlt	r0, r3
 800022e:	4770      	bx	lr
 8000230:	f092 0f00 	teq	r2, #0
 8000234:	f481 0100 	eor.w	r1, r1, #8388608	; 0x800000
 8000238:	bf06      	itte	eq
 800023a:	f480 0000 	eoreq.w	r0, r0, #8388608	; 0x800000
 800023e:	3201      	addeq	r2, #1
 8000240:	3b01      	subne	r3, #1
 8000242:	e7b5      	b.n	80001b0 <__addsf3+0x58>
 8000244:	ea4f 0341 	mov.w	r3, r1, lsl #1
 8000248:	ea7f 6c22 	mvns.w	ip, r2, asr #24
 800024c:	bf18      	it	ne
 800024e:	ea7f 6c23 	mvnsne.w	ip, r3, asr #24
 8000252:	d021      	beq.n	8000298 <__addsf3+0x140>
 8000254:	ea92 0f03 	teq	r2, r3
 8000258:	d004      	beq.n	8000264 <__addsf3+0x10c>
 800025a:	f092 0f00 	teq	r2, #0
 800025e:	bf08      	it	eq
 8000260:	4608      	moveq	r0, r1
 8000262:	4770      	bx	lr
 8000264:	ea90 0f01 	teq	r0, r1
 8000268:	bf1c      	itt	ne
 800026a:	2000      	movne	r0, #0
 800026c:	4770      	bxne	lr
 800026e:	f012 4f7f 	tst.w	r2, #4278190080	; 0xff000000
 8000272:	d104      	bne.n	800027e <__addsf3+0x126>
 8000274:	0040      	lsls	r0, r0, #1
 8000276:	bf28      	it	cs
 8000278:	f040 4000 	orrcs.w	r0, r0, #2147483648	; 0x80000000
 800027c:	4770      	bx	lr
 800027e:	f112 7200 	adds.w	r2, r2, #33554432	; 0x2000000
 8000282:	bf3c      	itt	cc
 8000284:	f500 0000 	addcc.w	r0, r0, #8388608	; 0x800000
 8000288:	4770      	bxcc	lr
 800028a:	f000 4300 	and.w	r3, r0, #2147483648	; 0x80000000
 800028e:	f043 40fe 	orr.w	r0, r3, #2130706432	; 0x7f000000
 8000292:	f440 0000 	orr.w	r0, r0, #8388608	; 0x800000
 8000296:	4770      	bx	lr
 8000298:	ea7f 6222 	mvns.w	r2, r2, asr #24
 800029c:	bf16      	itet	ne
 800029e:	4608      	movne	r0, r1
 80002a0:	ea7f 6323 	mvnseq.w	r3, r3, asr #24
 80002a4:	4601      	movne	r1, r0
 80002a6:	0242      	lsls	r2, r0, #9
 80002a8:	bf06      	itte	eq
 80002aa:	ea5f 2341 	movseq.w	r3, r1, lsl #9
 80002ae:	ea90 0f01 	teqeq	r0, r1
 80002b2:	f440 0080 	orrne.w	r0, r0, #4194304	; 0x400000
 80002b6:	4770      	bx	lr

080002b8 <__aeabi_ui2f>:
 80002b8:	f04f 0300 	mov.w	r3, #0
 80002bc:	e004      	b.n	80002c8 <__aeabi_i2f+0x8>
 80002be:	bf00      	nop

080002c0 <__aeabi_i2f>:
 80002c0:	f010 4300 	ands.w	r3, r0, #2147483648	; 0x80000000
 80002c4:	bf48      	it	mi
 80002c6:	4240      	negmi	r0, r0
 80002c8:	ea5f 0c00 	movs.w	ip, r0
 80002cc:	bf08      	it	eq
 80002ce:	4770      	bxeq	lr
 80002d0:	f043 4396 	orr.w	r3, r3, #1258291200	; 0x4b000000
 80002d4:	4601      	mov	r1, r0
 80002d6:	f04f 0000 	mov.w	r0, #0
 80002da:	e01c      	b.n	8000316 <__aeabi_l2f+0x2a>

080002dc <__aeabi_ul2f>:
 80002dc:	ea50 0201 	orrs.w	r2, r0, r1
 80002e0:	bf08      	it	eq
 80002e2:	4770      	bxeq	lr
 80002e4:	f04f 0300 	mov.w	r3, #0
 80002e8:	e00a      	b.n	8000300 <__aeabi_l2f+0x14>
 80002ea:	bf00      	nop

080002ec <__aeabi_l2f>:
 80002ec:	ea50 0201 	orrs.w	r2, r0, r1
 80002f0:	bf08      	it	eq
 80002f2:	4770      	bxeq	lr
 80002f4:	f011 4300 	ands.w	r3, r1, #2147483648	; 0x80000000
 80002f8:	d502      	bpl.n	8000300 <__aeabi_l2f+0x14>
 80002fa:	4240      	negs	r0, r0
 80002fc:	eb61 0141 	sbc.w	r1, r1, r1, lsl #1
 8000300:	ea5f 0c01 	movs.w	ip, r1
 8000304:	bf02      	ittt	eq
 8000306:	4684      	moveq	ip, r0
 8000308:	4601      	moveq	r1, r0
 800030a:	2000      	moveq	r0, #0
 800030c:	f043 43b6 	orr.w	r3, r3, #1526726656	; 0x5b000000
 8000310:	bf08      	it	eq
 8000312:	f1a3 5380 	subeq.w	r3, r3, #268435456	; 0x10000000
 8000316:	f5a3 0300 	sub.w	r3, r3, #8388608	; 0x800000
 800031a:	fabc f28c 	clz	r2, ip
 800031e:	3a08      	subs	r2, #8
 8000320:	eba3 53c2 	sub.w	r3, r3, r2, lsl #23
 8000324:	db10      	blt.n	8000348 <__aeabi_l2f+0x5c>
 8000326:	fa01 fc02 	lsl.w	ip, r1, r2
 800032a:	4463      	add	r3, ip
 800032c:	fa00 fc02 	lsl.w	ip, r0, r2
 8000330:	f1c2 0220 	rsb	r2, r2, #32
 8000334:	f1bc 4f00 	cmp.w	ip, #2147483648	; 0x80000000
 8000338:	fa20 f202 	lsr.w	r2, r0, r2
 800033c:	eb43 0002 	adc.w	r0, r3, r2
 8000340:	bf08      	it	eq
 8000342:	f020 0001 	biceq.w	r0, r0, #1
 8000346:	4770      	bx	lr
 8000348:	f102 0220 	add.w	r2, r2, #32
 800034c:	fa01 fc02 	lsl.w	ip, r1, r2
 8000350:	f1c2 0220 	rsb	r2, r2, #32
 8000354:	ea50 004c 	orrs.w	r0, r0, ip, lsl #1
 8000358:	fa21 f202 	lsr.w	r2, r1, r2
 800035c:	eb43 0002 	adc.w	r0, r3, r2
 8000360:	bf08      	it	eq
 8000362:	ea20 70dc 	biceq.w	r0, r0, ip, lsr #31
 8000366:	4770      	bx	lr

08000368 <__aeabi_fmul>:
 8000368:	f04f 0cff 	mov.w	ip, #255	; 0xff
 800036c:	ea1c 52d0 	ands.w	r2, ip, r0, lsr #23
 8000370:	bf1e      	ittt	ne
 8000372:	ea1c 53d1 	andsne.w	r3, ip, r1, lsr #23
 8000376:	ea92 0f0c 	teqne	r2, ip
 800037a:	ea93 0f0c 	teqne	r3, ip
 800037e:	d06f      	beq.n	8000460 <__aeabi_fmul+0xf8>
 8000380:	441a      	add	r2, r3
 8000382:	ea80 0c01 	eor.w	ip, r0, r1
 8000386:	0240      	lsls	r0, r0, #9
 8000388:	bf18      	it	ne
 800038a:	ea5f 2141 	movsne.w	r1, r1, lsl #9
 800038e:	d01e      	beq.n	80003ce <__aeabi_fmul+0x66>
 8000390:	f04f 6300 	mov.w	r3, #134217728	; 0x8000000
 8000394:	ea43 1050 	orr.w	r0, r3, r0, lsr #5
 8000398:	ea43 1151 	orr.w	r1, r3, r1, lsr #5
 800039c:	fba0 3101 	umull	r3, r1, r0, r1
 80003a0:	f00c 4000 	and.w	r0, ip, #2147483648	; 0x80000000
 80003a4:	f5b1 0f00 	cmp.w	r1, #8388608	; 0x800000
 80003a8:	bf3e      	ittt	cc
 80003aa:	0049      	lslcc	r1, r1, #1
 80003ac:	ea41 71d3 	orrcc.w	r1, r1, r3, lsr #31
 80003b0:	005b      	lslcc	r3, r3, #1
 80003b2:	ea40 0001 	orr.w	r0, r0, r1
 80003b6:	f162 027f 	sbc.w	r2, r2, #127	; 0x7f
 80003ba:	2afd      	cmp	r2, #253	; 0xfd
 80003bc:	d81d      	bhi.n	80003fa <__aeabi_fmul+0x92>
 80003be:	f1b3 4f00 	cmp.w	r3, #2147483648	; 0x80000000
 80003c2:	eb40 50c2 	adc.w	r0, r0, r2, lsl #23
 80003c6:	bf08      	it	eq
 80003c8:	f020 0001 	biceq.w	r0, r0, #1
 80003cc:	4770      	bx	lr
 80003ce:	f090 0f00 	teq	r0, #0
 80003d2:	f00c 4c00 	and.w	ip, ip, #2147483648	; 0x80000000
 80003d6:	bf08      	it	eq
 80003d8:	0249      	lsleq	r1, r1, #9
 80003da:	ea4c 2050 	orr.w	r0, ip, r0, lsr #9
 80003de:	ea40 2051 	orr.w	r0, r0, r1, lsr #9
 80003e2:	3a7f      	subs	r2, #127	; 0x7f
 80003e4:	bfc2      	ittt	gt
 80003e6:	f1d2 03ff 	rsbsgt	r3, r2, #255	; 0xff
 80003ea:	ea40 50c2 	orrgt.w	r0, r0, r2, lsl #23
 80003ee:	4770      	bxgt	lr
 80003f0:	f440 0000 	orr.w	r0, r0, #8388608	; 0x800000
 80003f4:	f04f 0300 	mov.w	r3, #0
 80003f8:	3a01      	subs	r2, #1
 80003fa:	dc5d      	bgt.n	80004b8 <__aeabi_fmul+0x150>
 80003fc:	f112 0f19 	cmn.w	r2, #25
 8000400:	bfdc      	itt	le
 8000402:	f000 4000 	andle.w	r0, r0, #2147483648	; 0x80000000
 8000406:	4770      	bxle	lr
 8000408:	f1c2 0200 	rsb	r2, r2, #0
 800040c:	0041      	lsls	r1, r0, #1
 800040e:	fa21 f102 	lsr.w	r1, r1, r2
 8000412:	f1c2 0220 	rsb	r2, r2, #32
 8000416:	fa00 fc02 	lsl.w	ip, r0, r2
 800041a:	ea5f 0031 	movs.w	r0, r1, rrx
 800041e:	f140 0000 	adc.w	r0, r0, #0
 8000422:	ea53 034c 	orrs.w	r3, r3, ip, lsl #1
 8000426:	bf08      	it	eq
 8000428:	ea20 70dc 	biceq.w	r0, r0, ip, lsr #31
 800042c:	4770      	bx	lr
 800042e:	f092 0f00 	teq	r2, #0
 8000432:	f000 4c00 	and.w	ip, r0, #2147483648	; 0x80000000
 8000436:	bf02      	ittt	eq
 8000438:	0040      	lsleq	r0, r0, #1
 800043a:	f410 0f00 	tsteq.w	r0, #8388608	; 0x800000
 800043e:	3a01      	subeq	r2, #1
 8000440:	d0f9      	beq.n	8000436 <__aeabi_fmul+0xce>
 8000442:	ea40 000c 	orr.w	r0, r0, ip
 8000446:	f093 0f00 	teq	r3, #0
 800044a:	f001 4c00 	and.w	ip, r1, #2147483648	; 0x80000000
 800044e:	bf02      	ittt	eq
 8000450:	0049      	lsleq	r1, r1, #1
 8000452:	f411 0f00 	tsteq.w	r1, #8388608	; 0x800000
 8000456:	3b01      	subeq	r3, #1
 8000458:	d0f9      	beq.n	800044e <__aeabi_fmul+0xe6>
 800045a:	ea41 010c 	orr.w	r1, r1, ip
 800045e:	e78f      	b.n	8000380 <__aeabi_fmul+0x18>
 8000460:	ea0c 53d1 	and.w	r3, ip, r1, lsr #23
 8000464:	ea92 0f0c 	teq	r2, ip
 8000468:	bf18      	it	ne
 800046a:	ea93 0f0c 	teqne	r3, ip
 800046e:	d00a      	beq.n	8000486 <__aeabi_fmul+0x11e>
 8000470:	f030 4c00 	bics.w	ip, r0, #2147483648	; 0x80000000
 8000474:	bf18      	it	ne
 8000476:	f031 4c00 	bicsne.w	ip, r1, #2147483648	; 0x80000000
 800047a:	d1d8      	bne.n	800042e <__aeabi_fmul+0xc6>
 800047c:	ea80 0001 	eor.w	r0, r0, r1
 8000480:	f000 4000 	and.w	r0, r0, #2147483648	; 0x80000000
 8000484:	4770      	bx	lr
 8000486:	f090 0f00 	teq	r0, #0
 800048a:	bf17      	itett	ne
 800048c:	f090 4f00 	teqne	r0, #2147483648	; 0x80000000
 8000490:	4608      	moveq	r0, r1
 8000492:	f091 0f00 	teqne	r1, #0
 8000496:	f091 4f00 	teqne	r1, #2147483648	; 0x80000000
 800049a:	d014      	beq.n	80004c6 <__aeabi_fmul+0x15e>
 800049c:	ea92 0f0c 	teq	r2, ip
 80004a0:	d101      	bne.n	80004a6 <__aeabi_fmul+0x13e>
 80004a2:	0242      	lsls	r2, r0, #9
 80004a4:	d10f      	bne.n	80004c6 <__aeabi_fmul+0x15e>
 80004a6:	ea93 0f0c 	teq	r3, ip
 80004aa:	d103      	bne.n	80004b4 <__aeabi_fmul+0x14c>
 80004ac:	024b      	lsls	r3, r1, #9
 80004ae:	bf18      	it	ne
 80004b0:	4608      	movne	r0, r1
 80004b2:	d108      	bne.n	80004c6 <__aeabi_fmul+0x15e>
 80004b4:	ea80 0001 	eor.w	r0, r0, r1
 80004b8:	f000 4000 	and.w	r0, r0, #2147483648	; 0x80000000
 80004bc:	f040 40fe 	orr.w	r0, r0, #2130706432	; 0x7f000000
 80004c0:	f440 0000 	orr.w	r0, r0, #8388608	; 0x800000
 80004c4:	4770      	bx	lr
 80004c6:	f040 40fe 	orr.w	r0, r0, #2130706432	; 0x7f000000
 80004ca:	f440 0040 	orr.w	r0, r0, #12582912	; 0xc00000
 80004ce:	4770      	bx	lr

080004d0 <__aeabi_fdiv>:
 80004d0:	f04f 0cff 	mov.w	ip, #255	; 0xff
 80004d4:	ea1c 52d0 	ands.w	r2, ip, r0, lsr #23
 80004d8:	bf1e      	ittt	ne
 80004da:	ea1c 53d1 	andsne.w	r3, ip, r1, lsr #23
 80004de:	ea92 0f0c 	teqne	r2, ip
 80004e2:	ea93 0f0c 	teqne	r3, ip
 80004e6:	d069      	beq.n	80005bc <__aeabi_fdiv+0xec>
 80004e8:	eba2 0203 	sub.w	r2, r2, r3
 80004ec:	ea80 0c01 	eor.w	ip, r0, r1
 80004f0:	0249      	lsls	r1, r1, #9
 80004f2:	ea4f 2040 	mov.w	r0, r0, lsl #9
 80004f6:	d037      	beq.n	8000568 <__aeabi_fdiv+0x98>
 80004f8:	f04f 5380 	mov.w	r3, #268435456	; 0x10000000
 80004fc:	ea43 1111 	orr.w	r1, r3, r1, lsr #4
 8000500:	ea43 1310 	orr.w	r3, r3, r0, lsr #4
 8000504:	f00c 4000 	and.w	r0, ip, #2147483648	; 0x80000000
 8000508:	428b      	cmp	r3, r1
 800050a:	bf38      	it	cc
 800050c:	005b      	lslcc	r3, r3, #1
 800050e:	f142 027d 	adc.w	r2, r2, #125	; 0x7d
 8000512:	f44f 0c00 	mov.w	ip, #8388608	; 0x800000
 8000516:	428b      	cmp	r3, r1
 8000518:	bf24      	itt	cs
 800051a:	1a5b      	subcs	r3, r3, r1
 800051c:	ea40 000c 	orrcs.w	r0, r0, ip
 8000520:	ebb3 0f51 	cmp.w	r3, r1, lsr #1
 8000524:	bf24      	itt	cs
 8000526:	eba3 0351 	subcs.w	r3, r3, r1, lsr #1
 800052a:	ea40 005c 	orrcs.w	r0, r0, ip, lsr #1
 800052e:	ebb3 0f91 	cmp.w	r3, r1, lsr #2
 8000532:	bf24      	itt	cs
 8000534:	eba3 0391 	subcs.w	r3, r3, r1, lsr #2
 8000538:	ea40 009c 	orrcs.w	r0, r0, ip, lsr #2
 800053c:	ebb3 0fd1 	cmp.w	r3, r1, lsr #3
 8000540:	bf24      	itt	cs
 8000542:	eba3 03d1 	subcs.w	r3, r3, r1, lsr #3
 8000546:	ea40 00dc 	orrcs.w	r0, r0, ip, lsr #3
 800054a:	011b      	lsls	r3, r3, #4
 800054c:	bf18      	it	ne
 800054e:	ea5f 1c1c 	movsne.w	ip, ip, lsr #4
 8000552:	d1e0      	bne.n	8000516 <__aeabi_fdiv+0x46>
 8000554:	2afd      	cmp	r2, #253	; 0xfd
 8000556:	f63f af50 	bhi.w	80003fa <__aeabi_fmul+0x92>
 800055a:	428b      	cmp	r3, r1
 800055c:	eb40 50c2 	adc.w	r0, r0, r2, lsl #23
 8000560:	bf08      	it	eq
 8000562:	f020 0001 	biceq.w	r0, r0, #1
 8000566:	4770      	bx	lr
 8000568:	f00c 4c00 	and.w	ip, ip, #2147483648	; 0x80000000
 800056c:	ea4c 2050 	orr.w	r0, ip, r0, lsr #9
 8000570:	327f      	adds	r2, #127	; 0x7f
 8000572:	bfc2      	ittt	gt
 8000574:	f1d2 03ff 	rsbsgt	r3, r2, #255	; 0xff
 8000578:	ea40 50c2 	orrgt.w	r0, r0, r2, lsl #23
 800057c:	4770      	bxgt	lr
 800057e:	f440 0000 	orr.w	r0, r0, #8388608	; 0x800000
 8000582:	f04f 0300 	mov.w	r3, #0
 8000586:	3a01      	subs	r2, #1
 8000588:	e737      	b.n	80003fa <__aeabi_fmul+0x92>
 800058a:	f092 0f00 	teq	r2, #0
 800058e:	f000 4c00 	and.w	ip, r0, #2147483648	; 0x80000000
 8000592:	bf02      	ittt	eq
 8000594:	0040      	lsleq	r0, r0, #1
 8000596:	f410 0f00 	tsteq.w	r0, #8388608	; 0x800000
 800059a:	3a01      	subeq	r2, #1
 800059c:	d0f9      	beq.n	8000592 <__aeabi_fdiv+0xc2>
 800059e:	ea40 000c 	orr.w	r0, r0, ip
 80005a2:	f093 0f00 	teq	r3, #0
 80005a6:	f001 4c00 	and.w	ip, r1, #2147483648	; 0x80000000
 80005aa:	bf02      	ittt	eq
 80005ac:	0049      	lsleq	r1, r1, #1
 80005ae:	f411 0f00 	tsteq.w	r1, #8388608	; 0x800000
 80005b2:	3b01      	subeq	r3, #1
 80005b4:	d0f9      	beq.n	80005aa <__aeabi_fdiv+0xda>
 80005b6:	ea41 010c 	orr.w	r1, r1, ip
 80005ba:	e795      	b.n	80004e8 <__aeabi_fdiv+0x18>
 80005bc:	ea0c 53d1 	and.w	r3, ip, r1, lsr #23
 80005c0:	ea92 0f0c 	teq	r2, ip
 80005c4:	d108      	bne.n	80005d8 <__aeabi_fdiv+0x108>
 80005c6:	0242      	lsls	r2, r0, #9
 80005c8:	f47f af7d 	bne.w	80004c6 <__aeabi_fmul+0x15e>
 80005cc:	ea93 0f0c 	teq	r3, ip
 80005d0:	f47f af70 	bne.w	80004b4 <__aeabi_fmul+0x14c>
 80005d4:	4608      	mov	r0, r1
 80005d6:	e776      	b.n	80004c6 <__aeabi_fmul+0x15e>
 80005d8:	ea93 0f0c 	teq	r3, ip
 80005dc:	d104      	bne.n	80005e8 <__aeabi_fdiv+0x118>
 80005de:	024b      	lsls	r3, r1, #9
 80005e0:	f43f af4c 	beq.w	800047c <__aeabi_fmul+0x114>
 80005e4:	4608      	mov	r0, r1
 80005e6:	e76e      	b.n	80004c6 <__aeabi_fmul+0x15e>
 80005e8:	f030 4c00 	bics.w	ip, r0, #2147483648	; 0x80000000
 80005ec:	bf18      	it	ne
 80005ee:	f031 4c00 	bicsne.w	ip, r1, #2147483648	; 0x80000000
 80005f2:	d1ca      	bne.n	800058a <__aeabi_fdiv+0xba>
 80005f4:	f030 4200 	bics.w	r2, r0, #2147483648	; 0x80000000
 80005f8:	f47f af5c 	bne.w	80004b4 <__aeabi_fmul+0x14c>
 80005fc:	f031 4300 	bics.w	r3, r1, #2147483648	; 0x80000000
 8000600:	f47f af3c 	bne.w	800047c <__aeabi_fmul+0x114>
 8000604:	e75f      	b.n	80004c6 <__aeabi_fmul+0x15e>
 8000606:	bf00      	nop

08000608 <__gesf2>:
 8000608:	f04f 3cff 	mov.w	ip, #4294967295
 800060c:	e006      	b.n	800061c <__cmpsf2+0x4>
 800060e:	bf00      	nop

08000610 <__lesf2>:
 8000610:	f04f 0c01 	mov.w	ip, #1
 8000614:	e002      	b.n	800061c <__cmpsf2+0x4>
 8000616:	bf00      	nop

08000618 <__cmpsf2>:
 8000618:	f04f 0c01 	mov.w	ip, #1
 800061c:	f84d cd04 	str.w	ip, [sp, #-4]!
 8000620:	ea4f 0240 	mov.w	r2, r0, lsl #1
 8000624:	ea4f 0341 	mov.w	r3, r1, lsl #1
 8000628:	ea7f 6c22 	mvns.w	ip, r2, asr #24
 800062c:	bf18      	it	ne
 800062e:	ea7f 6c23 	mvnsne.w	ip, r3, asr #24
 8000632:	d011      	beq.n	8000658 <__cmpsf2+0x40>
 8000634:	b001      	add	sp, #4
 8000636:	ea52 0c53 	orrs.w	ip, r2, r3, lsr #1
 800063a:	bf18      	it	ne
 800063c:	ea90 0f01 	teqne	r0, r1
 8000640:	bf58      	it	pl
 8000642:	ebb2 0003 	subspl.w	r0, r2, r3
 8000646:	bf88      	it	hi
 8000648:	17c8      	asrhi	r0, r1, #31
 800064a:	bf38      	it	cc
 800064c:	ea6f 70e1 	mvncc.w	r0, r1, asr #31
 8000650:	bf18      	it	ne
 8000652:	f040 0001 	orrne.w	r0, r0, #1
 8000656:	4770      	bx	lr
 8000658:	ea7f 6c22 	mvns.w	ip, r2, asr #24
 800065c:	d102      	bne.n	8000664 <__cmpsf2+0x4c>
 800065e:	ea5f 2c40 	movs.w	ip, r0, lsl #9
 8000662:	d105      	bne.n	8000670 <__cmpsf2+0x58>
 8000664:	ea7f 6c23 	mvns.w	ip, r3, asr #24
 8000668:	d1e4      	bne.n	8000634 <__cmpsf2+0x1c>
 800066a:	ea5f 2c41 	movs.w	ip, r1, lsl #9
 800066e:	d0e1      	beq.n	8000634 <__cmpsf2+0x1c>
 8000670:	f85d 0b04 	ldr.w	r0, [sp], #4
 8000674:	4770      	bx	lr
 8000676:	bf00      	nop

08000678 <__aeabi_cfrcmple>:
 8000678:	4684      	mov	ip, r0
 800067a:	4608      	mov	r0, r1
 800067c:	4661      	mov	r1, ip
 800067e:	e7ff      	b.n	8000680 <__aeabi_cfcmpeq>

08000680 <__aeabi_cfcmpeq>:
 8000680:	b50f      	push	{r0, r1, r2, r3, lr}
 8000682:	f7ff ffc9 	bl	8000618 <__cmpsf2>
 8000686:	2800      	cmp	r0, #0
 8000688:	bf48      	it	mi
 800068a:	f110 0f00 	cmnmi.w	r0, #0
 800068e:	bd0f      	pop	{r0, r1, r2, r3, pc}

08000690 <__aeabi_fcmpeq>:
 8000690:	f84d ed08 	str.w	lr, [sp, #-8]!
 8000694:	f7ff fff4 	bl	8000680 <__aeabi_cfcmpeq>
 8000698:	bf0c      	ite	eq
 800069a:	2001      	moveq	r0, #1
 800069c:	2000      	movne	r0, #0
 800069e:	f85d fb08 	ldr.w	pc, [sp], #8
 80006a2:	bf00      	nop

080006a4 <__aeabi_fcmplt>:
 80006a4:	f84d ed08 	str.w	lr, [sp, #-8]!
 80006a8:	f7ff ffea 	bl	8000680 <__aeabi_cfcmpeq>
 80006ac:	bf34      	ite	cc
 80006ae:	2001      	movcc	r0, #1
 80006b0:	2000      	movcs	r0, #0
 80006b2:	f85d fb08 	ldr.w	pc, [sp], #8
 80006b6:	bf00      	nop

080006b8 <__aeabi_fcmple>:
 80006b8:	f84d ed08 	str.w	lr, [sp, #-8]!
 80006bc:	f7ff ffe0 	bl	8000680 <__aeabi_cfcmpeq>
 80006c0:	bf94      	ite	ls
 80006c2:	2001      	movls	r0, #1
 80006c4:	2000      	movhi	r0, #0
 80006c6:	f85d fb08 	ldr.w	pc, [sp], #8
 80006ca:	bf00      	nop

080006cc <__aeabi_fcmpge>:
 80006cc:	f84d ed08 	str.w	lr, [sp, #-8]!
 80006d0:	f7ff ffd2 	bl	8000678 <__aeabi_cfrcmple>
 80006d4:	bf94      	ite	ls
 80006d6:	2001      	movls	r0, #1
 80006d8:	2000      	movhi	r0, #0
 80006da:	f85d fb08 	ldr.w	pc, [sp], #8
 80006de:	bf00      	nop

080006e0 <__aeabi_fcmpgt>:
 80006e0:	f84d ed08 	str.w	lr, [sp, #-8]!
 80006e4:	f7ff ffc8 	bl	8000678 <__aeabi_cfrcmple>
 80006e8:	bf34      	ite	cc
 80006ea:	2001      	movcc	r0, #1
 80006ec:	2000      	movcs	r0, #0
 80006ee:	f85d fb08 	ldr.w	pc, [sp], #8
 80006f2:	bf00      	nop

080006f4 <__aeabi_f2uiz>:
 80006f4:	0042      	lsls	r2, r0, #1
 80006f6:	d20e      	bcs.n	8000716 <__aeabi_f2uiz+0x22>
 80006f8:	f1b2 4ffe 	cmp.w	r2, #2130706432	; 0x7f000000
 80006fc:	d30b      	bcc.n	8000716 <__aeabi_f2uiz+0x22>
 80006fe:	f04f 039e 	mov.w	r3, #158	; 0x9e
 8000702:	ebb3 6212 	subs.w	r2, r3, r2, lsr #24
 8000706:	d409      	bmi.n	800071c <__aeabi_f2uiz+0x28>
 8000708:	ea4f 2300 	mov.w	r3, r0, lsl #8
 800070c:	f043 4300 	orr.w	r3, r3, #2147483648	; 0x80000000
 8000710:	fa23 f002 	lsr.w	r0, r3, r2
 8000714:	4770      	bx	lr
 8000716:	f04f 0000 	mov.w	r0, #0
 800071a:	4770      	bx	lr
 800071c:	f112 0f61 	cmn.w	r2, #97	; 0x61
 8000720:	d101      	bne.n	8000726 <__aeabi_f2uiz+0x32>
 8000722:	0242      	lsls	r2, r0, #9
 8000724:	d102      	bne.n	800072c <__aeabi_f2uiz+0x38>
 8000726:	f04f 30ff 	mov.w	r0, #4294967295
 800072a:	4770      	bx	lr
 800072c:	f04f 0000 	mov.w	r0, #0
 8000730:	4770      	bx	lr
 8000732:	bf00      	nop

08000734 <buzzToneInit>:
 8000734:	4b01      	ldr	r3, [pc, #4]	; (800073c <buzzToneInit+0x8>)
 8000736:	6018      	str	r0, [r3, #0]
 8000738:	4770      	bx	lr
 800073a:	bf00      	nop
 800073c:	20000060 	.word	0x20000060

08000740 <setNextToneTick>:
 8000740:	b508      	push	{r3, lr}
 8000742:	f001 f90f 	bl	8001964 <HAL_GetTick>
 8000746:	4b02      	ldr	r3, [pc, #8]	; (8000750 <setNextToneTick+0x10>)
 8000748:	307d      	adds	r0, #125	; 0x7d
 800074a:	6018      	str	r0, [r3, #0]
 800074c:	bd08      	pop	{r3, pc}
 800074e:	bf00      	nop
 8000750:	2000006c 	.word	0x2000006c

08000754 <setNextTonePlayTime>:
 8000754:	b508      	push	{r3, lr}
 8000756:	f001 f905 	bl	8001964 <HAL_GetTick>
 800075a:	4b02      	ldr	r3, [pc, #8]	; (8000764 <setNextTonePlayTime+0x10>)
 800075c:	f600 10c4 	addw	r0, r0, #2500	; 0x9c4
 8000760:	6018      	str	r0, [r3, #0]
 8000762:	bd08      	pop	{r3, pc}
 8000764:	20000068 	.word	0x20000068

08000768 <toneTickBegin>:
 8000768:	b110      	cbz	r0, 8000770 <toneTickBegin+0x8>
 800076a:	2201      	movs	r2, #1
 800076c:	4b03      	ldr	r3, [pc, #12]	; (800077c <toneTickBegin+0x14>)
 800076e:	701a      	strb	r2, [r3, #0]
 8000770:	2201      	movs	r2, #1
 8000772:	4b03      	ldr	r3, [pc, #12]	; (8000780 <toneTickBegin+0x18>)
 8000774:	701a      	strb	r2, [r3, #0]
 8000776:	f7ff bfe3 	b.w	8000740 <setNextToneTick>
 800077a:	bf00      	nop
 800077c:	20000067 	.word	0x20000067
 8000780:	2000005d 	.word	0x2000005d

08000784 <startTonePlay>:
 8000784:	b538      	push	{r3, r4, r5, lr}
 8000786:	2400      	movs	r4, #0
 8000788:	2201      	movs	r2, #1
 800078a:	4b0c      	ldr	r3, [pc, #48]	; (80007bc <startTonePlay+0x38>)
 800078c:	4d0c      	ldr	r5, [pc, #48]	; (80007c0 <startTonePlay+0x3c>)
 800078e:	4620      	mov	r0, r4
 8000790:	701a      	strb	r2, [r3, #0]
 8000792:	702c      	strb	r4, [r5, #0]
 8000794:	f7ff ffe8 	bl	8000768 <toneTickBegin>
 8000798:	4b0a      	ldr	r3, [pc, #40]	; (80007c4 <startTonePlay+0x40>)
 800079a:	4a0b      	ldr	r2, [pc, #44]	; (80007c8 <startTonePlay+0x44>)
 800079c:	6818      	ldr	r0, [r3, #0]
 800079e:	8812      	ldrh	r2, [r2, #0]
 80007a0:	6803      	ldr	r3, [r0, #0]
 80007a2:	4621      	mov	r1, r4
 80007a4:	635a      	str	r2, [r3, #52]	; 0x34
 80007a6:	f002 ffc7 	bl	8003738 <HAL_TIM_OC_Start>
 80007aa:	4b08      	ldr	r3, [pc, #32]	; (80007cc <startTonePlay+0x48>)
 80007ac:	782a      	ldrb	r2, [r5, #0]
 80007ae:	681b      	ldr	r3, [r3, #0]
 80007b0:	f833 2012 	ldrh.w	r2, [r3, r2, lsl #1]
 80007b4:	4b06      	ldr	r3, [pc, #24]	; (80007d0 <startTonePlay+0x4c>)
 80007b6:	62da      	str	r2, [r3, #44]	; 0x2c
 80007b8:	bd38      	pop	{r3, r4, r5, pc}
 80007ba:	bf00      	nop
 80007bc:	20000064 	.word	0x20000064
 80007c0:	20000055 	.word	0x20000055
 80007c4:	20000060 	.word	0x20000060
 80007c8:	20000000 	.word	0x20000000
 80007cc:	20000050 	.word	0x20000050
 80007d0:	40000400 	.word	0x40000400

080007d4 <playHeatTone>:
 80007d4:	4b06      	ldr	r3, [pc, #24]	; (80007f0 <playHeatTone+0x1c>)
 80007d6:	4a07      	ldr	r2, [pc, #28]	; (80007f4 <playHeatTone+0x20>)
 80007d8:	601a      	str	r2, [r3, #0]
 80007da:	4b07      	ldr	r3, [pc, #28]	; (80007f8 <playHeatTone+0x24>)
 80007dc:	4a07      	ldr	r2, [pc, #28]	; (80007fc <playHeatTone+0x28>)
 80007de:	601a      	str	r2, [r3, #0]
 80007e0:	2203      	movs	r2, #3
 80007e2:	4b07      	ldr	r3, [pc, #28]	; (8000800 <playHeatTone+0x2c>)
 80007e4:	701a      	strb	r2, [r3, #0]
 80007e6:	2200      	movs	r2, #0
 80007e8:	4b06      	ldr	r3, [pc, #24]	; (8000804 <playHeatTone+0x30>)
 80007ea:	701a      	strb	r2, [r3, #0]
 80007ec:	f7ff bfca 	b.w	8000784 <startTonePlay>
 80007f0:	20000050 	.word	0x20000050
 80007f4:	08003af0 	.word	0x08003af0
 80007f8:	20000058 	.word	0x20000058
 80007fc:	08003af6 	.word	0x08003af6
 8000800:	20000070 	.word	0x20000070
 8000804:	20000065 	.word	0x20000065

08000808 <toneTickEnd>:
 8000808:	2300      	movs	r3, #0
 800080a:	4a02      	ldr	r2, [pc, #8]	; (8000814 <toneTickEnd+0xc>)
 800080c:	7013      	strb	r3, [r2, #0]
 800080e:	4a02      	ldr	r2, [pc, #8]	; (8000818 <toneTickEnd+0x10>)
 8000810:	7013      	strb	r3, [r2, #0]
 8000812:	4770      	bx	lr
 8000814:	20000067 	.word	0x20000067
 8000818:	2000005d 	.word	0x2000005d

0800081c <toneRepeatTickBegin>:
 800081c:	b110      	cbz	r0, 8000824 <toneRepeatTickBegin+0x8>
 800081e:	2201      	movs	r2, #1
 8000820:	4b03      	ldr	r3, [pc, #12]	; (8000830 <toneRepeatTickBegin+0x14>)
 8000822:	701a      	strb	r2, [r3, #0]
 8000824:	2201      	movs	r2, #1
 8000826:	4b03      	ldr	r3, [pc, #12]	; (8000834 <toneRepeatTickBegin+0x18>)
 8000828:	701a      	strb	r2, [r3, #0]
 800082a:	f7ff bf93 	b.w	8000754 <setNextTonePlayTime>
 800082e:	bf00      	nop
 8000830:	20000066 	.word	0x20000066
 8000834:	2000005c 	.word	0x2000005c

08000838 <endTonePlay>:
 8000838:	2100      	movs	r1, #0
 800083a:	b510      	push	{r4, lr}
 800083c:	4604      	mov	r4, r0
 800083e:	4b0b      	ldr	r3, [pc, #44]	; (800086c <endTonePlay+0x34>)
 8000840:	7019      	strb	r1, [r3, #0]
 8000842:	4b0b      	ldr	r3, [pc, #44]	; (8000870 <endTonePlay+0x38>)
 8000844:	7019      	strb	r1, [r3, #0]
 8000846:	4b0b      	ldr	r3, [pc, #44]	; (8000874 <endTonePlay+0x3c>)
 8000848:	7019      	strb	r1, [r3, #0]
 800084a:	4b0b      	ldr	r3, [pc, #44]	; (8000878 <endTonePlay+0x40>)
 800084c:	6818      	ldr	r0, [r3, #0]
 800084e:	f002 ffbf 	bl	80037d0 <HAL_TIM_OC_Stop>
 8000852:	f7ff ffd9 	bl	8000808 <toneTickEnd>
 8000856:	b93c      	cbnz	r4, 8000868 <endTonePlay+0x30>
 8000858:	4b08      	ldr	r3, [pc, #32]	; (800087c <endTonePlay+0x44>)
 800085a:	781b      	ldrb	r3, [r3, #0]
 800085c:	b123      	cbz	r3, 8000868 <endTonePlay+0x30>
 800085e:	4620      	mov	r0, r4
 8000860:	e8bd 4010 	ldmia.w	sp!, {r4, lr}
 8000864:	f7ff bfda 	b.w	800081c <toneRepeatTickBegin>
 8000868:	bd10      	pop	{r4, pc}
 800086a:	bf00      	nop
 800086c:	20000064 	.word	0x20000064
 8000870:	20000055 	.word	0x20000055
 8000874:	20000054 	.word	0x20000054
 8000878:	20000060 	.word	0x20000060
 800087c:	20000065 	.word	0x20000065

08000880 <checkTonePlay>:
 8000880:	4b12      	ldr	r3, [pc, #72]	; (80008cc <checkTonePlay+0x4c>)
 8000882:	b410      	push	{r4}
 8000884:	781b      	ldrb	r3, [r3, #0]
 8000886:	b1f3      	cbz	r3, 80008c6 <checkTonePlay+0x46>
 8000888:	4911      	ldr	r1, [pc, #68]	; (80008d0 <checkTonePlay+0x50>)
 800088a:	4812      	ldr	r0, [pc, #72]	; (80008d4 <checkTonePlay+0x54>)
 800088c:	780a      	ldrb	r2, [r1, #0]
 800088e:	4c12      	ldr	r4, [pc, #72]	; (80008d8 <checkTonePlay+0x58>)
 8000890:	3201      	adds	r2, #1
 8000892:	b2d2      	uxtb	r2, r2
 8000894:	7803      	ldrb	r3, [r0, #0]
 8000896:	6824      	ldr	r4, [r4, #0]
 8000898:	700a      	strb	r2, [r1, #0]
 800089a:	5ce4      	ldrb	r4, [r4, r3]
 800089c:	4294      	cmp	r4, r2
 800089e:	d812      	bhi.n	80008c6 <checkTonePlay+0x46>
 80008a0:	4a0e      	ldr	r2, [pc, #56]	; (80008dc <checkTonePlay+0x5c>)
 80008a2:	3301      	adds	r3, #1
 80008a4:	7812      	ldrb	r2, [r2, #0]
 80008a6:	b2db      	uxtb	r3, r3
 80008a8:	429a      	cmp	r2, r3
 80008aa:	7003      	strb	r3, [r0, #0]
 80008ac:	d803      	bhi.n	80008b6 <checkTonePlay+0x36>
 80008ae:	2000      	movs	r0, #0
 80008b0:	bc10      	pop	{r4}
 80008b2:	f7ff bfc1 	b.w	8000838 <endTonePlay>
 80008b6:	2200      	movs	r2, #0
 80008b8:	700a      	strb	r2, [r1, #0]
 80008ba:	4a09      	ldr	r2, [pc, #36]	; (80008e0 <checkTonePlay+0x60>)
 80008bc:	6812      	ldr	r2, [r2, #0]
 80008be:	f832 2013 	ldrh.w	r2, [r2, r3, lsl #1]
 80008c2:	4b08      	ldr	r3, [pc, #32]	; (80008e4 <checkTonePlay+0x64>)
 80008c4:	62da      	str	r2, [r3, #44]	; 0x2c
 80008c6:	bc10      	pop	{r4}
 80008c8:	4770      	bx	lr
 80008ca:	bf00      	nop
 80008cc:	20000064 	.word	0x20000064
 80008d0:	20000054 	.word	0x20000054
 80008d4:	20000055 	.word	0x20000055
 80008d8:	20000058 	.word	0x20000058
 80008dc:	20000070 	.word	0x20000070
 80008e0:	20000050 	.word	0x20000050
 80008e4:	40000400 	.word	0x40000400

080008e8 <toneTickGen>:
 80008e8:	b508      	push	{r3, lr}
 80008ea:	4b0f      	ldr	r3, [pc, #60]	; (8000928 <toneTickGen+0x40>)
 80008ec:	781b      	ldrb	r3, [r3, #0]
 80008ee:	b153      	cbz	r3, 8000906 <toneTickGen+0x1e>
 80008f0:	f001 f838 	bl	8001964 <HAL_GetTick>
 80008f4:	4b0d      	ldr	r3, [pc, #52]	; (800092c <toneTickGen+0x44>)
 80008f6:	681b      	ldr	r3, [r3, #0]
 80008f8:	4298      	cmp	r0, r3
 80008fa:	d304      	bcc.n	8000906 <toneTickGen+0x1e>
 80008fc:	2201      	movs	r2, #1
 80008fe:	4b0c      	ldr	r3, [pc, #48]	; (8000930 <toneTickGen+0x48>)
 8000900:	701a      	strb	r2, [r3, #0]
 8000902:	f7ff ff1d 	bl	8000740 <setNextToneTick>
 8000906:	4b0b      	ldr	r3, [pc, #44]	; (8000934 <toneTickGen+0x4c>)
 8000908:	781b      	ldrb	r3, [r3, #0]
 800090a:	b163      	cbz	r3, 8000926 <toneTickGen+0x3e>
 800090c:	f001 f82a 	bl	8001964 <HAL_GetTick>
 8000910:	4b09      	ldr	r3, [pc, #36]	; (8000938 <toneTickGen+0x50>)
 8000912:	681b      	ldr	r3, [r3, #0]
 8000914:	4298      	cmp	r0, r3
 8000916:	d306      	bcc.n	8000926 <toneTickGen+0x3e>
 8000918:	2201      	movs	r2, #1
 800091a:	4b08      	ldr	r3, [pc, #32]	; (800093c <toneTickGen+0x54>)
 800091c:	701a      	strb	r2, [r3, #0]
 800091e:	e8bd 4008 	ldmia.w	sp!, {r3, lr}
 8000922:	f7ff bf17 	b.w	8000754 <setNextTonePlayTime>
 8000926:	bd08      	pop	{r3, pc}
 8000928:	2000005d 	.word	0x2000005d
 800092c:	2000006c 	.word	0x2000006c
 8000930:	20000067 	.word	0x20000067
 8000934:	2000005c 	.word	0x2000005c
 8000938:	20000068 	.word	0x20000068
 800093c:	20000066 	.word	0x20000066

08000940 <toneTickHandler>:
 8000940:	b508      	push	{r3, lr}
 8000942:	f7ff ffd1 	bl	80008e8 <toneTickGen>
 8000946:	4b0b      	ldr	r3, [pc, #44]	; (8000974 <toneTickHandler+0x34>)
 8000948:	781a      	ldrb	r2, [r3, #0]
 800094a:	b152      	cbz	r2, 8000962 <toneTickHandler+0x22>
 800094c:	2200      	movs	r2, #0
 800094e:	701a      	strb	r2, [r3, #0]
 8000950:	2201      	movs	r2, #1
 8000952:	4b09      	ldr	r3, [pc, #36]	; (8000978 <toneTickHandler+0x38>)
 8000954:	701a      	strb	r2, [r3, #0]
 8000956:	f7ff fef3 	bl	8000740 <setNextToneTick>
 800095a:	e8bd 4008 	ldmia.w	sp!, {r3, lr}
 800095e:	f7ff bf11 	b.w	8000784 <startTonePlay>
 8000962:	4b06      	ldr	r3, [pc, #24]	; (800097c <toneTickHandler+0x3c>)
 8000964:	7819      	ldrb	r1, [r3, #0]
 8000966:	b121      	cbz	r1, 8000972 <toneTickHandler+0x32>
 8000968:	701a      	strb	r2, [r3, #0]
 800096a:	e8bd 4008 	ldmia.w	sp!, {r3, lr}
 800096e:	f7ff bf87 	b.w	8000880 <checkTonePlay>
 8000972:	bd08      	pop	{r3, pc}
 8000974:	20000066 	.word	0x20000066
 8000978:	2000005d 	.word	0x2000005d
 800097c:	20000067 	.word	0x20000067

08000980 <stateSetMode>:
 8000980:	2801      	cmp	r0, #1
 8000982:	b508      	push	{r3, lr}
 8000984:	d00f      	beq.n	80009a6 <stateSetMode+0x26>
 8000986:	2802      	cmp	r0, #2
 8000988:	d003      	beq.n	8000992 <stateSetMode+0x12>
 800098a:	b958      	cbnz	r0, 80009a4 <stateSetMode+0x24>
 800098c:	4b0b      	ldr	r3, [pc, #44]	; (80009bc <stateSetMode+0x3c>)
 800098e:	7418      	strb	r0, [r3, #16]
 8000990:	e008      	b.n	80009a4 <stateSetMode+0x24>
 8000992:	4b0a      	ldr	r3, [pc, #40]	; (80009bc <stateSetMode+0x3c>)
 8000994:	7418      	strb	r0, [r3, #16]
 8000996:	f000 ffe5 	bl	8001964 <HAL_GetTick>
 800099a:	4b09      	ldr	r3, [pc, #36]	; (80009c0 <stateSetMode+0x40>)
 800099c:	f500 30ea 	add.w	r0, r0, #119808	; 0x1d400
 80009a0:	30c0      	adds	r0, #192	; 0xc0
 80009a2:	6018      	str	r0, [r3, #0]
 80009a4:	bd08      	pop	{r3, pc}
 80009a6:	4b05      	ldr	r3, [pc, #20]	; (80009bc <stateSetMode+0x3c>)
 80009a8:	7418      	strb	r0, [r3, #16]
 80009aa:	f000 ffdb 	bl	8001964 <HAL_GetTick>
 80009ae:	f500 2012 	add.w	r0, r0, #598016	; 0x92000
 80009b2:	4b04      	ldr	r3, [pc, #16]	; (80009c4 <stateSetMode+0x44>)
 80009b4:	f500 60f8 	add.w	r0, r0, #1984	; 0x7c0
 80009b8:	e7f3      	b.n	80009a2 <stateSetMode+0x22>
 80009ba:	bf00      	nop
 80009bc:	20000078 	.word	0x20000078
 80009c0:	20000074 	.word	0x20000074
 80009c4:	2000008c 	.word	0x2000008c

080009c8 <stateModeIs>:
 80009c8:	4b02      	ldr	r3, [pc, #8]	; (80009d4 <stateModeIs+0xc>)
 80009ca:	7c1b      	ldrb	r3, [r3, #16]
 80009cc:	1a1b      	subs	r3, r3, r0
 80009ce:	4258      	negs	r0, r3
 80009d0:	4158      	adcs	r0, r3
 80009d2:	4770      	bx	lr
 80009d4:	20000078 	.word	0x20000078

080009d8 <checkStateTimeout>:
 80009d8:	b508      	push	{r3, lr}
 80009da:	4b0e      	ldr	r3, [pc, #56]	; (8000a14 <checkStateTimeout+0x3c>)
 80009dc:	7c1a      	ldrb	r2, [r3, #16]
 80009de:	2a01      	cmp	r2, #1
 80009e0:	d106      	bne.n	80009f0 <checkStateTimeout+0x18>
 80009e2:	4a0d      	ldr	r2, [pc, #52]	; (8000a18 <checkStateTimeout+0x40>)
 80009e4:	6812      	ldr	r2, [r2, #0]
 80009e6:	4282      	cmp	r2, r0
 80009e8:	d802      	bhi.n	80009f0 <checkStateTimeout+0x18>
 80009ea:	2200      	movs	r2, #0
 80009ec:	741a      	strb	r2, [r3, #16]
 80009ee:	bd08      	pop	{r3, pc}
 80009f0:	7c1a      	ldrb	r2, [r3, #16]
 80009f2:	2a02      	cmp	r2, #2
 80009f4:	d1fb      	bne.n	80009ee <checkStateTimeout+0x16>
 80009f6:	4a09      	ldr	r2, [pc, #36]	; (8000a1c <checkStateTimeout+0x44>)
 80009f8:	6812      	ldr	r2, [r2, #0]
 80009fa:	4282      	cmp	r2, r0
 80009fc:	d8f7      	bhi.n	80009ee <checkStateTimeout+0x16>
 80009fe:	2201      	movs	r2, #1
 8000a00:	741a      	strb	r2, [r3, #16]
 8000a02:	f000 ffaf 	bl	8001964 <HAL_GetTick>
 8000a06:	4b04      	ldr	r3, [pc, #16]	; (8000a18 <checkStateTimeout+0x40>)
 8000a08:	f500 2012 	add.w	r0, r0, #598016	; 0x92000
 8000a0c:	f500 60f8 	add.w	r0, r0, #1984	; 0x7c0
 8000a10:	6018      	str	r0, [r3, #0]
 8000a12:	e7ec      	b.n	80009ee <checkStateTimeout+0x16>
 8000a14:	20000078 	.word	0x20000078
 8000a18:	2000008c 	.word	0x2000008c
 8000a1c:	20000074 	.word	0x20000074

08000a20 <getState>:
 8000a20:	4800      	ldr	r0, [pc, #0]	; (8000a24 <getState+0x4>)
 8000a22:	4770      	bx	lr
 8000a24:	20000078 	.word	0x20000078

08000a28 <cfgInit>:
 8000a28:	4b02      	ldr	r3, [pc, #8]	; (8000a34 <cfgInit+0xc>)
 8000a2a:	6018      	str	r0, [r3, #0]
 8000a2c:	4b02      	ldr	r3, [pc, #8]	; (8000a38 <cfgInit+0x10>)
 8000a2e:	6019      	str	r1, [r3, #0]
 8000a30:	4770      	bx	lr
 8000a32:	bf00      	nop
 8000a34:	20000090 	.word	0x20000090
 8000a38:	20000094 	.word	0x20000094

08000a3c <guiInit>:
 8000a3c:	f000 bd12 	b.w	8001464 <SSD1306_Init>

08000a40 <map>:
 8000a40:	e92d 41f0 	stmdb	sp!, {r4, r5, r6, r7, r8, lr}
 8000a44:	460c      	mov	r4, r1
 8000a46:	4606      	mov	r6, r0
 8000a48:	4619      	mov	r1, r3
 8000a4a:	9806      	ldr	r0, [sp, #24]
 8000a4c:	4617      	mov	r7, r2
 8000a4e:	461d      	mov	r5, r3
 8000a50:	f7ff fb80 	bl	8000154 <__aeabi_fsub>
 8000a54:	4621      	mov	r1, r4
 8000a56:	4680      	mov	r8, r0
 8000a58:	4638      	mov	r0, r7
 8000a5a:	f7ff fb7b 	bl	8000154 <__aeabi_fsub>
 8000a5e:	4621      	mov	r1, r4
 8000a60:	4607      	mov	r7, r0
 8000a62:	4630      	mov	r0, r6
 8000a64:	f7ff fe1e 	bl	80006a4 <__aeabi_fcmplt>
 8000a68:	b188      	cbz	r0, 8000a8e <map+0x4e>
 8000a6a:	4631      	mov	r1, r6
 8000a6c:	4620      	mov	r0, r4
 8000a6e:	f7ff fb71 	bl	8000154 <__aeabi_fsub>
 8000a72:	4641      	mov	r1, r8
 8000a74:	f7ff fc78 	bl	8000368 <__aeabi_fmul>
 8000a78:	4639      	mov	r1, r7
 8000a7a:	f7ff fd29 	bl	80004d0 <__aeabi_fdiv>
 8000a7e:	4601      	mov	r1, r0
 8000a80:	4628      	mov	r0, r5
 8000a82:	f7ff fb67 	bl	8000154 <__aeabi_fsub>
 8000a86:	f7ff fe35 	bl	80006f4 <__aeabi_f2uiz>
 8000a8a:	e8bd 81f0 	ldmia.w	sp!, {r4, r5, r6, r7, r8, pc}
 8000a8e:	4621      	mov	r1, r4
 8000a90:	4630      	mov	r0, r6
 8000a92:	f7ff fb5f 	bl	8000154 <__aeabi_fsub>
 8000a96:	f7ff fe2d 	bl	80006f4 <__aeabi_f2uiz>
 8000a9a:	f7ff fc0d 	bl	80002b8 <__aeabi_ui2f>
 8000a9e:	4641      	mov	r1, r8
 8000aa0:	f7ff fc62 	bl	8000368 <__aeabi_fmul>
 8000aa4:	4639      	mov	r1, r7
 8000aa6:	f7ff fd13 	bl	80004d0 <__aeabi_fdiv>
 8000aaa:	4629      	mov	r1, r5
 8000aac:	f7ff fb54 	bl	8000158 <__addsf3>
 8000ab0:	e7e9      	b.n	8000a86 <map+0x46>
	...

08000ab4 <heaterOn>:
 8000ab4:	2201      	movs	r2, #1
 8000ab6:	f44f 5100 	mov.w	r1, #8192	; 0x2000
 8000aba:	4801      	ldr	r0, [pc, #4]	; (8000ac0 <heaterOn+0xc>)
 8000abc:	f001 bcaa 	b.w	8002414 <HAL_GPIO_WritePin>
 8000ac0:	40011000 	.word	0x40011000

08000ac4 <heaterOff>:
 8000ac4:	2200      	movs	r2, #0
 8000ac6:	f44f 5100 	mov.w	r1, #8192	; 0x2000
 8000aca:	4801      	ldr	r0, [pc, #4]	; (8000ad0 <heaterOff+0xc>)
 8000acc:	f001 bca2 	b.w	8002414 <HAL_GPIO_WritePin>
 8000ad0:	40011000 	.word	0x40011000

08000ad4 <heaterEnable>:
 8000ad4:	b508      	push	{r3, lr}
 8000ad6:	b928      	cbnz	r0, 8000ae4 <heaterEnable+0x10>
 8000ad8:	f7ff fff4 	bl	8000ac4 <heaterOff>
 8000adc:	2301      	movs	r3, #1
 8000ade:	4a02      	ldr	r2, [pc, #8]	; (8000ae8 <heaterEnable+0x14>)
 8000ae0:	7013      	strb	r3, [r2, #0]
 8000ae2:	bd08      	pop	{r3, pc}
 8000ae4:	2300      	movs	r3, #0
 8000ae6:	e7fa      	b.n	8000ade <heaterEnable+0xa>
 8000ae8:	2000000c 	.word	0x2000000c

08000aec <temp2V>:
 8000aec:	4b10      	ldr	r3, [pc, #64]	; (8000b30 <temp2V+0x44>)
 8000aee:	b5f7      	push	{r0, r1, r2, r4, r5, r6, r7, lr}
 8000af0:	4604      	mov	r4, r0
 8000af2:	6818      	ldr	r0, [r3, #0]
 8000af4:	f7ff fbe0 	bl	80002b8 <__aeabi_ui2f>
 8000af8:	4b0e      	ldr	r3, [pc, #56]	; (8000b34 <temp2V+0x48>)
 8000afa:	4607      	mov	r7, r0
 8000afc:	6818      	ldr	r0, [r3, #0]
 8000afe:	f7ff fbdb 	bl	80002b8 <__aeabi_ui2f>
 8000b02:	4b0d      	ldr	r3, [pc, #52]	; (8000b38 <temp2V+0x4c>)
 8000b04:	4606      	mov	r6, r0
 8000b06:	6818      	ldr	r0, [r3, #0]
 8000b08:	f7ff fbd6 	bl	80002b8 <__aeabi_ui2f>
 8000b0c:	4605      	mov	r5, r0
 8000b0e:	4620      	mov	r0, r4
 8000b10:	f7ff fbd2 	bl	80002b8 <__aeabi_ui2f>
 8000b14:	4b09      	ldr	r3, [pc, #36]	; (8000b3c <temp2V+0x50>)
 8000b16:	4604      	mov	r4, r0
 8000b18:	6818      	ldr	r0, [r3, #0]
 8000b1a:	f7ff fbcd 	bl	80002b8 <__aeabi_ui2f>
 8000b1e:	463b      	mov	r3, r7
 8000b20:	9000      	str	r0, [sp, #0]
 8000b22:	4632      	mov	r2, r6
 8000b24:	4629      	mov	r1, r5
 8000b26:	4620      	mov	r0, r4
 8000b28:	f7ff ff8a 	bl	8000a40 <map>
 8000b2c:	b003      	add	sp, #12
 8000b2e:	bdf0      	pop	{r4, r5, r6, r7, pc}
 8000b30:	20000008 	.word	0x20000008
 8000b34:	2000001c 	.word	0x2000001c
 8000b38:	20000020 	.word	0x20000020
 8000b3c:	20000004 	.word	0x20000004

08000b40 <heaterInit>:
 8000b40:	2200      	movs	r2, #0
 8000b42:	b538      	push	{r3, r4, r5, lr}
 8000b44:	4b12      	ldr	r3, [pc, #72]	; (8000b90 <heaterInit+0x50>)
 8000b46:	460d      	mov	r5, r1
 8000b48:	701a      	strb	r2, [r3, #0]
 8000b4a:	4604      	mov	r4, r0
 8000b4c:	f7ff ff68 	bl	8000a20 <getState>
 8000b50:	4b10      	ldr	r3, [pc, #64]	; (8000b94 <heaterInit+0x54>)
 8000b52:	6018      	str	r0, [r3, #0]
 8000b54:	4b10      	ldr	r3, [pc, #64]	; (8000b98 <heaterInit+0x58>)
 8000b56:	801d      	strh	r5, [r3, #0]
 8000b58:	4b10      	ldr	r3, [pc, #64]	; (8000b9c <heaterInit+0x5c>)
 8000b5a:	601c      	str	r4, [r3, #0]
 8000b5c:	4b10      	ldr	r3, [pc, #64]	; (8000ba0 <heaterInit+0x60>)
 8000b5e:	6818      	ldr	r0, [r3, #0]
 8000b60:	4b10      	ldr	r3, [pc, #64]	; (8000ba4 <heaterInit+0x64>)
 8000b62:	681b      	ldr	r3, [r3, #0]
 8000b64:	1ac0      	subs	r0, r0, r3
 8000b66:	f7ff fba7 	bl	80002b8 <__aeabi_ui2f>
 8000b6a:	4b0f      	ldr	r3, [pc, #60]	; (8000ba8 <heaterInit+0x68>)
 8000b6c:	6018      	str	r0, [r3, #0]
 8000b6e:	4b0f      	ldr	r3, [pc, #60]	; (8000bac <heaterInit+0x6c>)
 8000b70:	6818      	ldr	r0, [r3, #0]
 8000b72:	4b0f      	ldr	r3, [pc, #60]	; (8000bb0 <heaterInit+0x70>)
 8000b74:	681b      	ldr	r3, [r3, #0]
 8000b76:	1ac0      	subs	r0, r0, r3
 8000b78:	f7ff fb9e 	bl	80002b8 <__aeabi_ui2f>
 8000b7c:	4b0d      	ldr	r3, [pc, #52]	; (8000bb4 <heaterInit+0x74>)
 8000b7e:	6018      	str	r0, [r3, #0]
 8000b80:	4b0d      	ldr	r3, [pc, #52]	; (8000bb8 <heaterInit+0x78>)
 8000b82:	8818      	ldrh	r0, [r3, #0]
 8000b84:	f7ff ffb2 	bl	8000aec <temp2V>
 8000b88:	4b0c      	ldr	r3, [pc, #48]	; (8000bbc <heaterInit+0x7c>)
 8000b8a:	6018      	str	r0, [r3, #0]
 8000b8c:	bd38      	pop	{r3, r4, r5, pc}
 8000b8e:	bf00      	nop
 8000b90:	2000000c 	.word	0x2000000c
 8000b94:	200000a0 	.word	0x200000a0
 8000b98:	2000009c 	.word	0x2000009c
 8000b9c:	20000098 	.word	0x20000098
 8000ba0:	2000001c 	.word	0x2000001c
 8000ba4:	20000020 	.word	0x20000020
 8000ba8:	200000b0 	.word	0x200000b0
 8000bac:	20000004 	.word	0x20000004
 8000bb0:	20000008 	.word	0x20000008
 8000bb4:	200000b4 	.word	0x200000b4
 8000bb8:	20000018 	.word	0x20000018
 8000bbc:	200000ac 	.word	0x200000ac

08000bc0 <heaterSetTemp>:
 8000bc0:	4b08      	ldr	r3, [pc, #32]	; (8000be4 <heaterSetTemp+0x24>)
 8000bc2:	b510      	push	{r4, lr}
 8000bc4:	4604      	mov	r4, r0
 8000bc6:	6018      	str	r0, [r3, #0]
 8000bc8:	f7ff ff90 	bl	8000aec <temp2V>
 8000bcc:	4b06      	ldr	r3, [pc, #24]	; (8000be8 <heaterSetTemp+0x28>)
 8000bce:	6018      	str	r0, [r3, #0]
 8000bd0:	4b06      	ldr	r3, [pc, #24]	; (8000bec <heaterSetTemp+0x2c>)
 8000bd2:	f104 001e 	add.w	r0, r4, #30
 8000bd6:	6018      	str	r0, [r3, #0]
 8000bd8:	b280      	uxth	r0, r0
 8000bda:	f7ff ff87 	bl	8000aec <temp2V>
 8000bde:	4b04      	ldr	r3, [pc, #16]	; (8000bf0 <heaterSetTemp+0x30>)
 8000be0:	6018      	str	r0, [r3, #0]
 8000be2:	bd10      	pop	{r4, pc}
 8000be4:	20000014 	.word	0x20000014
 8000be8:	200000a8 	.word	0x200000a8
 8000bec:	20000010 	.word	0x20000010
 8000bf0:	200000a4 	.word	0x200000a4

08000bf4 <heaterCheckTemp>:
 8000bf4:	b538      	push	{r3, r4, r5, lr}
 8000bf6:	4b13      	ldr	r3, [pc, #76]	; (8000c44 <heaterCheckTemp+0x50>)
 8000bf8:	4604      	mov	r4, r0
 8000bfa:	681b      	ldr	r3, [r3, #0]
 8000bfc:	4608      	mov	r0, r1
 8000bfe:	4299      	cmp	r1, r3
 8000c00:	d001      	beq.n	8000c06 <heaterCheckTemp+0x12>
 8000c02:	f7ff ffdd 	bl	8000bc0 <heaterSetTemp>
 8000c06:	4b10      	ldr	r3, [pc, #64]	; (8000c48 <heaterCheckTemp+0x54>)
 8000c08:	2001      	movs	r0, #1
 8000c0a:	681d      	ldr	r5, [r3, #0]
 8000c0c:	f7ff fedc 	bl	80009c8 <stateModeIs>
 8000c10:	b138      	cbz	r0, 8000c22 <heaterCheckTemp+0x2e>
 8000c12:	4b0e      	ldr	r3, [pc, #56]	; (8000c4c <heaterCheckTemp+0x58>)
 8000c14:	681d      	ldr	r5, [r3, #0]
 8000c16:	42a5      	cmp	r5, r4
 8000c18:	dd0f      	ble.n	8000c3a <heaterCheckTemp+0x46>
 8000c1a:	e8bd 4038 	ldmia.w	sp!, {r3, r4, r5, lr}
 8000c1e:	f7ff bf49 	b.w	8000ab4 <heaterOn>
 8000c22:	2002      	movs	r0, #2
 8000c24:	f7ff fed0 	bl	80009c8 <stateModeIs>
 8000c28:	2800      	cmp	r0, #0
 8000c2a:	d0f4      	beq.n	8000c16 <heaterCheckTemp+0x22>
 8000c2c:	4b08      	ldr	r3, [pc, #32]	; (8000c50 <heaterCheckTemp+0x5c>)
 8000c2e:	681b      	ldr	r3, [r3, #0]
 8000c30:	7b1b      	ldrb	r3, [r3, #12]
 8000c32:	2b00      	cmp	r3, #0
 8000c34:	d0ef      	beq.n	8000c16 <heaterCheckTemp+0x22>
 8000c36:	4b07      	ldr	r3, [pc, #28]	; (8000c54 <heaterCheckTemp+0x60>)
 8000c38:	e7ec      	b.n	8000c14 <heaterCheckTemp+0x20>
 8000c3a:	e8bd 4038 	ldmia.w	sp!, {r3, r4, r5, lr}
 8000c3e:	f7ff bf41 	b.w	8000ac4 <heaterOff>
 8000c42:	bf00      	nop
 8000c44:	20000014 	.word	0x20000014
 8000c48:	200000a8 	.word	0x200000a8
 8000c4c:	200000ac 	.word	0x200000ac
 8000c50:	200000a0 	.word	0x200000a0
 8000c54:	200000a4 	.word	0x200000a4

08000c58 <v2temp>:
 8000c58:	4b11      	ldr	r3, [pc, #68]	; (8000ca0 <v2temp+0x48>)
 8000c5a:	b5f7      	push	{r0, r1, r2, r4, r5, r6, r7, lr}
 8000c5c:	4604      	mov	r4, r0
 8000c5e:	6818      	ldr	r0, [r3, #0]
 8000c60:	f7ff fb2a 	bl	80002b8 <__aeabi_ui2f>
 8000c64:	4b0f      	ldr	r3, [pc, #60]	; (8000ca4 <v2temp+0x4c>)
 8000c66:	4607      	mov	r7, r0
 8000c68:	6818      	ldr	r0, [r3, #0]
 8000c6a:	f7ff fb25 	bl	80002b8 <__aeabi_ui2f>
 8000c6e:	4b0e      	ldr	r3, [pc, #56]	; (8000ca8 <v2temp+0x50>)
 8000c70:	4606      	mov	r6, r0
 8000c72:	6818      	ldr	r0, [r3, #0]
 8000c74:	f7ff fb20 	bl	80002b8 <__aeabi_ui2f>
 8000c78:	4605      	mov	r5, r0
 8000c7a:	4620      	mov	r0, r4
 8000c7c:	f7ff fb1c 	bl	80002b8 <__aeabi_ui2f>
 8000c80:	4b0a      	ldr	r3, [pc, #40]	; (8000cac <v2temp+0x54>)
 8000c82:	4604      	mov	r4, r0
 8000c84:	6818      	ldr	r0, [r3, #0]
 8000c86:	f7ff fb17 	bl	80002b8 <__aeabi_ui2f>
 8000c8a:	463b      	mov	r3, r7
 8000c8c:	9000      	str	r0, [sp, #0]
 8000c8e:	4632      	mov	r2, r6
 8000c90:	4629      	mov	r1, r5
 8000c92:	4620      	mov	r0, r4
 8000c94:	f7ff fed4 	bl	8000a40 <map>
 8000c98:	b280      	uxth	r0, r0
 8000c9a:	b003      	add	sp, #12
 8000c9c:	bdf0      	pop	{r4, r5, r6, r7, pc}
 8000c9e:	bf00      	nop
 8000ca0:	20000020 	.word	0x20000020
 8000ca4:	20000004 	.word	0x20000004
 8000ca8:	20000008 	.word	0x20000008
 8000cac:	2000001c 	.word	0x2000001c

08000cb0 <input_init>:
 8000cb0:	b508      	push	{r3, lr}
 8000cb2:	f7ff feb5 	bl	8000a20 <getState>
 8000cb6:	4b01      	ldr	r3, [pc, #4]	; (8000cbc <input_init+0xc>)
 8000cb8:	6018      	str	r0, [r3, #0]
 8000cba:	bd08      	pop	{r3, pc}
 8000cbc:	200000c0 	.word	0x200000c0

08000cc0 <isExti>:
 8000cc0:	4b02      	ldr	r3, [pc, #8]	; (8000ccc <isExti+0xc>)
 8000cc2:	7818      	ldrb	r0, [r3, #0]
 8000cc4:	3800      	subs	r0, #0
 8000cc6:	bf18      	it	ne
 8000cc8:	2001      	movne	r0, #1
 8000cca:	4770      	bx	lr
 8000ccc:	200000bc 	.word	0x200000bc

08000cd0 <resetExti>:
 8000cd0:	2200      	movs	r2, #0
 8000cd2:	4b01      	ldr	r3, [pc, #4]	; (8000cd8 <resetExti+0x8>)
 8000cd4:	701a      	strb	r2, [r3, #0]
 8000cd6:	4770      	bx	lr
 8000cd8:	200000bc 	.word	0x200000bc

08000cdc <encoderGetTick>:
 8000cdc:	4b01      	ldr	r3, [pc, #4]	; (8000ce4 <encoderGetTick+0x8>)
 8000cde:	8818      	ldrh	r0, [r3, #0]
 8000ce0:	b280      	uxth	r0, r0
 8000ce2:	4770      	bx	lr
 8000ce4:	20000024 	.word	0x20000024

08000ce8 <encoderSetTick>:
 8000ce8:	4b01      	ldr	r3, [pc, #4]	; (8000cf0 <encoderSetTick+0x8>)
 8000cea:	8018      	strh	r0, [r3, #0]
 8000cec:	4770      	bx	lr
 8000cee:	bf00      	nop
 8000cf0:	20000024 	.word	0x20000024

08000cf4 <isPaddleDown>:
 8000cf4:	f44f 6100 	mov.w	r1, #2048	; 0x800
 8000cf8:	b508      	push	{r3, lr}
 8000cfa:	4803      	ldr	r0, [pc, #12]	; (8000d08 <isPaddleDown+0x14>)
 8000cfc:	f001 fb84 	bl	8002408 <HAL_GPIO_ReadPin>
 8000d00:	fab0 f080 	clz	r0, r0
 8000d04:	0940      	lsrs	r0, r0, #5
 8000d06:	bd08      	pop	{r3, pc}
 8000d08:	40010c00 	.word	0x40010c00

08000d0c <isHandleDocked>:
 8000d0c:	f44f 4100 	mov.w	r1, #32768	; 0x8000
 8000d10:	b508      	push	{r3, lr}
 8000d12:	4803      	ldr	r0, [pc, #12]	; (8000d20 <isHandleDocked+0x14>)
 8000d14:	f001 fb78 	bl	8002408 <HAL_GPIO_ReadPin>
 8000d18:	fab0 f080 	clz	r0, r0
 8000d1c:	0940      	lsrs	r0, r0, #5
 8000d1e:	bd08      	pop	{r3, pc}
 8000d20:	40010c00 	.word	0x40010c00

08000d24 <exti_callback>:
 8000d24:	b5f8      	push	{r3, r4, r5, r6, r7, lr}
 8000d26:	4604      	mov	r4, r0
 8000d28:	f000 fe1c 	bl	8001964 <HAL_GetTick>
 8000d2c:	4d4c      	ldr	r5, [pc, #304]	; (8000e60 <exti_callback+0x13c>)
 8000d2e:	f5b4 5f80 	cmp.w	r4, #4096	; 0x1000
 8000d32:	4e4c      	ldr	r6, [pc, #304]	; (8000e64 <exti_callback+0x140>)
 8000d34:	6028      	str	r0, [r5, #0]
 8000d36:	d134      	bne.n	8000da2 <exti_callback+0x7e>
 8000d38:	4621      	mov	r1, r4
 8000d3a:	484b      	ldr	r0, [pc, #300]	; (8000e68 <exti_callback+0x144>)
 8000d3c:	f001 fb64 	bl	8002408 <HAL_GPIO_ReadPin>
 8000d40:	f44f 5100 	mov.w	r1, #8192	; 0x2000
 8000d44:	4604      	mov	r4, r0
 8000d46:	4848      	ldr	r0, [pc, #288]	; (8000e68 <exti_callback+0x144>)
 8000d48:	f001 fb5e 	bl	8002408 <HAL_GPIO_ReadPin>
 8000d4c:	6832      	ldr	r2, [r6, #0]
 8000d4e:	682b      	ldr	r3, [r5, #0]
 8000d50:	1a9b      	subs	r3, r3, r2
 8000d52:	f5b3 7f96 	cmp.w	r3, #300	; 0x12c
 8000d56:	bf94      	ite	ls
 8000d58:	2305      	movls	r3, #5
 8000d5a:	2301      	movhi	r3, #1
 8000d5c:	4a43      	ldr	r2, [pc, #268]	; (8000e6c <exti_callback+0x148>)
 8000d5e:	4284      	cmp	r4, r0
 8000d60:	7013      	strb	r3, [r2, #0]
 8000d62:	4a43      	ldr	r2, [pc, #268]	; (8000e70 <exti_callback+0x14c>)
 8000d64:	b29b      	uxth	r3, r3
 8000d66:	8811      	ldrh	r1, [r2, #0]
 8000d68:	bf0c      	ite	eq
 8000d6a:	185b      	addeq	r3, r3, r1
 8000d6c:	1acb      	subne	r3, r1, r3
 8000d6e:	b29b      	uxth	r3, r3
 8000d70:	8013      	strh	r3, [r2, #0]
 8000d72:	8813      	ldrh	r3, [r2, #0]
 8000d74:	b29b      	uxth	r3, r3
 8000d76:	f5b3 7ffa 	cmp.w	r3, #500	; 0x1f4
 8000d7a:	d90c      	bls.n	8000d96 <exti_callback+0x72>
 8000d7c:	f44f 73fa 	mov.w	r3, #500	; 0x1f4
 8000d80:	8013      	strh	r3, [r2, #0]
 8000d82:	493c      	ldr	r1, [pc, #240]	; (8000e74 <exti_callback+0x150>)
 8000d84:	483c      	ldr	r0, [pc, #240]	; (8000e78 <exti_callback+0x154>)
 8000d86:	f002 fe9f 	bl	8003ac8 <strcpy>
 8000d8a:	2201      	movs	r2, #1
 8000d8c:	682b      	ldr	r3, [r5, #0]
 8000d8e:	6033      	str	r3, [r6, #0]
 8000d90:	4b3a      	ldr	r3, [pc, #232]	; (8000e7c <exti_callback+0x158>)
 8000d92:	701a      	strb	r2, [r3, #0]
 8000d94:	bdf8      	pop	{r3, r4, r5, r6, r7, pc}
 8000d96:	8813      	ldrh	r3, [r2, #0]
 8000d98:	b29b      	uxth	r3, r3
 8000d9a:	2b95      	cmp	r3, #149	; 0x95
 8000d9c:	d8f1      	bhi.n	8000d82 <exti_callback+0x5e>
 8000d9e:	2396      	movs	r3, #150	; 0x96
 8000da0:	e7ee      	b.n	8000d80 <exti_callback+0x5c>
 8000da2:	f5b4 4f80 	cmp.w	r4, #16384	; 0x4000
 8000da6:	d134      	bne.n	8000e12 <exti_callback+0xee>
 8000da8:	4935      	ldr	r1, [pc, #212]	; (8000e80 <exti_callback+0x15c>)
 8000daa:	4833      	ldr	r0, [pc, #204]	; (8000e78 <exti_callback+0x154>)
 8000dac:	f002 fe8c 	bl	8003ac8 <strcpy>
 8000db0:	4621      	mov	r1, r4
 8000db2:	482d      	ldr	r0, [pc, #180]	; (8000e68 <exti_callback+0x144>)
 8000db4:	f001 fb28 	bl	8002408 <HAL_GPIO_ReadPin>
 8000db8:	4607      	mov	r7, r0
 8000dba:	4c32      	ldr	r4, [pc, #200]	; (8000e84 <exti_callback+0x160>)
 8000dbc:	f000 fdd2 	bl	8001964 <HAL_GetTick>
 8000dc0:	6823      	ldr	r3, [r4, #0]
 8000dc2:	b93f      	cbnz	r7, 8000dd4 <exti_callback+0xb0>
 8000dc4:	b123      	cbz	r3, 8000dd0 <exti_callback+0xac>
 8000dc6:	6823      	ldr	r3, [r4, #0]
 8000dc8:	1ac3      	subs	r3, r0, r3
 8000dca:	f5b3 6ffa 	cmp.w	r3, #2000	; 0x7d0
 8000dce:	d9dc      	bls.n	8000d8a <exti_callback+0x66>
 8000dd0:	6020      	str	r0, [r4, #0]
 8000dd2:	e7da      	b.n	8000d8a <exti_callback+0x66>
 8000dd4:	2b00      	cmp	r3, #0
 8000dd6:	d0d8      	beq.n	8000d8a <exti_callback+0x66>
 8000dd8:	4b2b      	ldr	r3, [pc, #172]	; (8000e88 <exti_callback+0x164>)
 8000dda:	6821      	ldr	r1, [r4, #0]
 8000ddc:	681a      	ldr	r2, [r3, #0]
 8000dde:	1a40      	subs	r0, r0, r1
 8000de0:	f5b0 7ffa 	cmp.w	r0, #500	; 0x1f4
 8000de4:	7c13      	ldrb	r3, [r2, #16]
 8000de6:	d20e      	bcs.n	8000e06 <exti_callback+0xe2>
 8000de8:	2b01      	cmp	r3, #1
 8000dea:	d00a      	beq.n	8000e02 <exti_callback+0xde>
 8000dec:	2b02      	cmp	r3, #2
 8000dee:	d002      	beq.n	8000df6 <exti_callback+0xd2>
 8000df0:	b923      	cbnz	r3, 8000dfc <exti_callback+0xd8>
 8000df2:	2002      	movs	r0, #2
 8000df4:	e000      	b.n	8000df8 <exti_callback+0xd4>
 8000df6:	2001      	movs	r0, #1
 8000df8:	f7ff fdc2 	bl	8000980 <stateSetMode>
 8000dfc:	2300      	movs	r3, #0
 8000dfe:	6023      	str	r3, [r4, #0]
 8000e00:	e7c3      	b.n	8000d8a <exti_callback+0x66>
 8000e02:	2000      	movs	r0, #0
 8000e04:	e7f8      	b.n	8000df8 <exti_callback+0xd4>
 8000e06:	2b04      	cmp	r3, #4
 8000e08:	bf14      	ite	ne
 8000e0a:	2304      	movne	r3, #4
 8000e0c:	2300      	moveq	r3, #0
 8000e0e:	7413      	strb	r3, [r2, #16]
 8000e10:	e7f4      	b.n	8000dfc <exti_callback+0xd8>
 8000e12:	f5b4 6f00 	cmp.w	r4, #2048	; 0x800
 8000e16:	d10d      	bne.n	8000e34 <exti_callback+0x110>
 8000e18:	f7ff ff6c 	bl	8000cf4 <isPaddleDown>
 8000e1c:	4c1a      	ldr	r4, [pc, #104]	; (8000e88 <exti_callback+0x164>)
 8000e1e:	b130      	cbz	r0, 8000e2e <exti_callback+0x10a>
 8000e20:	2002      	movs	r0, #2
 8000e22:	f7ff fdad 	bl	8000980 <stateSetMode>
 8000e26:	2201      	movs	r2, #1
 8000e28:	6823      	ldr	r3, [r4, #0]
 8000e2a:	731a      	strb	r2, [r3, #12]
 8000e2c:	e7ad      	b.n	8000d8a <exti_callback+0x66>
 8000e2e:	6823      	ldr	r3, [r4, #0]
 8000e30:	7318      	strb	r0, [r3, #12]
 8000e32:	e7aa      	b.n	8000d8a <exti_callback+0x66>
 8000e34:	f5b4 4f00 	cmp.w	r4, #32768	; 0x8000
 8000e38:	d1a7      	bne.n	8000d8a <exti_callback+0x66>
 8000e3a:	f7ff ff67 	bl	8000d0c <isHandleDocked>
 8000e3e:	b140      	cbz	r0, 8000e52 <exti_callback+0x12e>
 8000e40:	2002      	movs	r0, #2
 8000e42:	f7ff fdc1 	bl	80009c8 <stateModeIs>
 8000e46:	2800      	cmp	r0, #0
 8000e48:	d09f      	beq.n	8000d8a <exti_callback+0x66>
 8000e4a:	2001      	movs	r0, #1
 8000e4c:	f7ff fd98 	bl	8000980 <stateSetMode>
 8000e50:	e79b      	b.n	8000d8a <exti_callback+0x66>
 8000e52:	2001      	movs	r0, #1
 8000e54:	f7ff fdb8 	bl	80009c8 <stateModeIs>
 8000e58:	2800      	cmp	r0, #0
 8000e5a:	d096      	beq.n	8000d8a <exti_callback+0x66>
 8000e5c:	2002      	movs	r0, #2
 8000e5e:	e7f5      	b.n	8000e4c <exti_callback+0x128>
 8000e60:	200000b8 	.word	0x200000b8
 8000e64:	200000cc 	.word	0x200000cc
 8000e68:	40010c00 	.word	0x40010c00
 8000e6c:	20000026 	.word	0x20000026
 8000e70:	20000024 	.word	0x20000024
 8000e74:	08003af9 	.word	0x08003af9
 8000e78:	200000c4 	.word	0x200000c4
 8000e7c:	200000bc 	.word	0x200000bc
 8000e80:	08003aff 	.word	0x08003aff
 8000e84:	200000d0 	.word	0x200000d0
 8000e88:	200000c0 	.word	0x200000c0

08000e8c <sendMsg>:
 8000e8c:	460a      	mov	r2, r1
 8000e8e:	f44f 737a 	mov.w	r3, #1000	; 0x3e8
 8000e92:	4601      	mov	r1, r0
 8000e94:	4801      	ldr	r0, [pc, #4]	; (8000e9c <sendMsg+0x10>)
 8000e96:	f002 bda0 	b.w	80039da <HAL_UART_Transmit>
 8000e9a:	bf00      	nop
 8000e9c:	2000023c 	.word	0x2000023c

08000ea0 <checkState>:
 8000ea0:	b508      	push	{r3, lr}
 8000ea2:	f000 fd5f 	bl	8001964 <HAL_GetTick>
 8000ea6:	e8bd 4008 	ldmia.w	sp!, {r3, lr}
 8000eaa:	f7ff bd95 	b.w	80009d8 <checkStateTimeout>

08000eae <SystemClock_Config>:
 8000eae:	b510      	push	{r4, lr}
 8000eb0:	b094      	sub	sp, #80	; 0x50
 8000eb2:	2214      	movs	r2, #20
 8000eb4:	2100      	movs	r1, #0
 8000eb6:	a80c      	add	r0, sp, #48	; 0x30
 8000eb8:	f002 fdda 	bl	8003a70 <memset>
 8000ebc:	2214      	movs	r2, #20
 8000ebe:	2100      	movs	r1, #0
 8000ec0:	eb0d 0002 	add.w	r0, sp, r2
 8000ec4:	f002 fdd4 	bl	8003a70 <memset>
 8000ec8:	2210      	movs	r2, #16
 8000eca:	2100      	movs	r1, #0
 8000ecc:	a801      	add	r0, sp, #4
 8000ece:	f002 fdcf 	bl	8003a70 <memset>
 8000ed2:	2402      	movs	r4, #2
 8000ed4:	f44f 3380 	mov.w	r3, #65536	; 0x10000
 8000ed8:	2201      	movs	r2, #1
 8000eda:	e9cd 4311 	strd	r4, r3, [sp, #68]	; 0x44
 8000ede:	e9cd 230a 	strd	r2, r3, [sp, #40]	; 0x28
 8000ee2:	f44f 13e0 	mov.w	r3, #1835008	; 0x1c0000
 8000ee6:	a80a      	add	r0, sp, #40	; 0x28
 8000ee8:	920e      	str	r2, [sp, #56]	; 0x38
 8000eea:	9313      	str	r3, [sp, #76]	; 0x4c
 8000eec:	f001 fdcc 	bl	8002a88 <HAL_RCC_OscConfig>
 8000ef0:	b108      	cbz	r0, 8000ef6 <SystemClock_Config+0x48>
 8000ef2:	b672      	cpsid	i
 8000ef4:	e7fe      	b.n	8000ef4 <SystemClock_Config+0x46>
 8000ef6:	230f      	movs	r3, #15
 8000ef8:	e9cd 3405 	strd	r3, r4, [sp, #20]
 8000efc:	f44f 6380 	mov.w	r3, #1024	; 0x400
 8000f00:	9007      	str	r0, [sp, #28]
 8000f02:	e9cd 3008 	strd	r3, r0, [sp, #32]
 8000f06:	4621      	mov	r1, r4
 8000f08:	a805      	add	r0, sp, #20
 8000f0a:	f001 ff7f 	bl	8002e0c <HAL_RCC_ClockConfig>
 8000f0e:	b108      	cbz	r0, 8000f14 <SystemClock_Config+0x66>
 8000f10:	b672      	cpsid	i
 8000f12:	e7fe      	b.n	8000f12 <SystemClock_Config+0x64>
 8000f14:	f44f 4300 	mov.w	r3, #32768	; 0x8000
 8000f18:	a801      	add	r0, sp, #4
 8000f1a:	9401      	str	r4, [sp, #4]
 8000f1c:	9303      	str	r3, [sp, #12]
 8000f1e:	f002 f831 	bl	8002f84 <HAL_RCCEx_PeriphCLKConfig>
 8000f22:	b108      	cbz	r0, 8000f28 <SystemClock_Config+0x7a>
 8000f24:	b672      	cpsid	i
 8000f26:	e7fe      	b.n	8000f26 <SystemClock_Config+0x78>
 8000f28:	b014      	add	sp, #80	; 0x50
 8000f2a:	bd10      	pop	{r4, pc}

08000f2c <main>:
 8000f2c:	e92d 47f0 	stmdb	sp!, {r4, r5, r6, r7, r8, r9, sl, lr}
 8000f30:	2610      	movs	r6, #16
 8000f32:	b092      	sub	sp, #72	; 0x48
 8000f34:	4caa      	ldr	r4, [pc, #680]	; (80011e0 <main+0x2b4>)
 8000f36:	2105      	movs	r1, #5
 8000f38:	48aa      	ldr	r0, [pc, #680]	; (80011e4 <main+0x2b8>)
 8000f3a:	f7ff ffa7 	bl	8000e8c <sendMsg>
 8000f3e:	f000 fcf3 	bl	8001928 <HAL_Init>
 8000f42:	f7ff ffb4 	bl	8000eae <SystemClock_Config>
 8000f46:	4632      	mov	r2, r6
 8000f48:	2100      	movs	r1, #0
 8000f4a:	a80b      	add	r0, sp, #44	; 0x2c
 8000f4c:	f002 fd90 	bl	8003a70 <memset>
 8000f50:	69a3      	ldr	r3, [r4, #24]
 8000f52:	2500      	movs	r5, #0
 8000f54:	4333      	orrs	r3, r6
 8000f56:	61a3      	str	r3, [r4, #24]
 8000f58:	f04f 0801 	mov.w	r8, #1
 8000f5c:	f04f 0902 	mov.w	r9, #2
 8000f60:	f44f 5a00 	mov.w	sl, #8192	; 0x2000
 8000f64:	69a3      	ldr	r3, [r4, #24]
 8000f66:	2200      	movs	r2, #0
 8000f68:	4033      	ands	r3, r6
 8000f6a:	9301      	str	r3, [sp, #4]
 8000f6c:	9b01      	ldr	r3, [sp, #4]
 8000f6e:	69a3      	ldr	r3, [r4, #24]
 8000f70:	f44f 5100 	mov.w	r1, #8192	; 0x2000
 8000f74:	f043 0320 	orr.w	r3, r3, #32
 8000f78:	61a3      	str	r3, [r4, #24]
 8000f7a:	69a3      	ldr	r3, [r4, #24]
 8000f7c:	489a      	ldr	r0, [pc, #616]	; (80011e8 <main+0x2bc>)
 8000f7e:	f003 0320 	and.w	r3, r3, #32
 8000f82:	9302      	str	r3, [sp, #8]
 8000f84:	9b02      	ldr	r3, [sp, #8]
 8000f86:	69a3      	ldr	r3, [r4, #24]
 8000f88:	f44f 5780 	mov.w	r7, #4096	; 0x1000
 8000f8c:	f043 0304 	orr.w	r3, r3, #4
 8000f90:	61a3      	str	r3, [r4, #24]
 8000f92:	69a3      	ldr	r3, [r4, #24]
 8000f94:	f003 0304 	and.w	r3, r3, #4
 8000f98:	9303      	str	r3, [sp, #12]
 8000f9a:	9b03      	ldr	r3, [sp, #12]
 8000f9c:	69a3      	ldr	r3, [r4, #24]
 8000f9e:	f043 0308 	orr.w	r3, r3, #8
 8000fa2:	61a3      	str	r3, [r4, #24]
 8000fa4:	69a3      	ldr	r3, [r4, #24]
 8000fa6:	f003 0308 	and.w	r3, r3, #8
 8000faa:	9304      	str	r3, [sp, #16]
 8000fac:	9b04      	ldr	r3, [sp, #16]
 8000fae:	f001 fa31 	bl	8002414 <HAL_GPIO_WritePin>
 8000fb2:	2200      	movs	r2, #0
 8000fb4:	2180      	movs	r1, #128	; 0x80
 8000fb6:	488d      	ldr	r0, [pc, #564]	; (80011ec <main+0x2c0>)
 8000fb8:	f001 fa2c 	bl	8002414 <HAL_GPIO_WritePin>
 8000fbc:	2200      	movs	r2, #0
 8000fbe:	2102      	movs	r1, #2
 8000fc0:	488b      	ldr	r0, [pc, #556]	; (80011f0 <main+0x2c4>)
 8000fc2:	f001 fa27 	bl	8002414 <HAL_GPIO_WritePin>
 8000fc6:	4888      	ldr	r0, [pc, #544]	; (80011e8 <main+0x2bc>)
 8000fc8:	a90b      	add	r1, sp, #44	; 0x2c
 8000fca:	e9cd 590d 	strd	r5, r9, [sp, #52]	; 0x34
 8000fce:	e9cd a80b 	strd	sl, r8, [sp, #44]	; 0x2c
 8000fd2:	f001 f943 	bl	800225c <HAL_GPIO_Init>
 8000fd6:	2380      	movs	r3, #128	; 0x80
 8000fd8:	4884      	ldr	r0, [pc, #528]	; (80011ec <main+0x2c0>)
 8000fda:	a90b      	add	r1, sp, #44	; 0x2c
 8000fdc:	e9cd 380b 	strd	r3, r8, [sp, #44]	; 0x2c
 8000fe0:	e9cd 590d 	strd	r5, r9, [sp, #52]	; 0x34
 8000fe4:	f001 f93a 	bl	800225c <HAL_GPIO_Init>
 8000fe8:	4881      	ldr	r0, [pc, #516]	; (80011f0 <main+0x2c4>)
 8000fea:	a90b      	add	r1, sp, #44	; 0x2c
 8000fec:	e9cd 590d 	strd	r5, r9, [sp, #52]	; 0x34
 8000ff0:	e9cd 980b 	strd	r9, r8, [sp, #44]	; 0x2c
 8000ff4:	f001 f932 	bl	800225c <HAL_GPIO_Init>
 8000ff8:	f44f 4248 	mov.w	r2, #51200	; 0xc800
 8000ffc:	4b7d      	ldr	r3, [pc, #500]	; (80011f4 <main+0x2c8>)
 8000ffe:	487c      	ldr	r0, [pc, #496]	; (80011f0 <main+0x2c4>)
 8001000:	a90b      	add	r1, sp, #44	; 0x2c
 8001002:	e9cd 230b 	strd	r2, r3, [sp, #44]	; 0x2c
 8001006:	f8cd 8034 	str.w	r8, [sp, #52]	; 0x34
 800100a:	f001 f927 	bl	800225c <HAL_GPIO_Init>
 800100e:	4b7a      	ldr	r3, [pc, #488]	; (80011f8 <main+0x2cc>)
 8001010:	4877      	ldr	r0, [pc, #476]	; (80011f0 <main+0x2c4>)
 8001012:	a90b      	add	r1, sp, #44	; 0x2c
 8001014:	e9cd 730b 	strd	r7, r3, [sp, #44]	; 0x2c
 8001018:	f8cd 8034 	str.w	r8, [sp, #52]	; 0x34
 800101c:	f001 f91e 	bl	800225c <HAL_GPIO_Init>
 8001020:	4873      	ldr	r0, [pc, #460]	; (80011f0 <main+0x2c4>)
 8001022:	a90b      	add	r1, sp, #44	; 0x2c
 8001024:	e9cd a50b 	strd	sl, r5, [sp, #44]	; 0x2c
 8001028:	f8cd 8034 	str.w	r8, [sp, #52]	; 0x34
 800102c:	f001 f916 	bl	800225c <HAL_GPIO_Init>
 8001030:	462a      	mov	r2, r5
 8001032:	4641      	mov	r1, r8
 8001034:	2028      	movs	r0, #40	; 0x28
 8001036:	f000 ffb9 	bl	8001fac <HAL_NVIC_SetPriority>
 800103a:	2028      	movs	r0, #40	; 0x28
 800103c:	f000 ffe6 	bl	800200c <HAL_NVIC_EnableIRQ>
 8001040:	6963      	ldr	r3, [r4, #20]
 8001042:	462a      	mov	r2, r5
 8001044:	ea43 0308 	orr.w	r3, r3, r8
 8001048:	6163      	str	r3, [r4, #20]
 800104a:	6963      	ldr	r3, [r4, #20]
 800104c:	4629      	mov	r1, r5
 800104e:	ea03 0308 	and.w	r3, r3, r8
 8001052:	200b      	movs	r0, #11
 8001054:	9300      	str	r3, [sp, #0]
 8001056:	9b00      	ldr	r3, [sp, #0]
 8001058:	f000 ffa8 	bl	8001fac <HAL_NVIC_SetPriority>
 800105c:	200b      	movs	r0, #11
 800105e:	f000 ffd5 	bl	800200c <HAL_NVIC_EnableIRQ>
 8001062:	4c66      	ldr	r4, [pc, #408]	; (80011fc <main+0x2d0>)
 8001064:	4b66      	ldr	r3, [pc, #408]	; (8001200 <main+0x2d4>)
 8001066:	e9cd 550b 	strd	r5, r5, [sp, #44]	; 0x2c
 800106a:	6023      	str	r3, [r4, #0]
 800106c:	f44f 7380 	mov.w	r3, #256	; 0x100
 8001070:	950d      	str	r5, [sp, #52]	; 0x34
 8001072:	60a3      	str	r3, [r4, #8]
 8001074:	7325      	strb	r5, [r4, #12]
 8001076:	f44f 2360 	mov.w	r3, #917504	; 0xe0000
 800107a:	7525      	strb	r5, [r4, #20]
 800107c:	6065      	str	r5, [r4, #4]
 800107e:	2503      	movs	r5, #3
 8001080:	4620      	mov	r0, r4
 8001082:	61e3      	str	r3, [r4, #28]
 8001084:	6125      	str	r5, [r4, #16]
 8001086:	f000 fe8f 	bl	8001da8 <HAL_ADC_Init>
 800108a:	b108      	cbz	r0, 8001090 <main+0x164>
 800108c:	b672      	cpsid	i
 800108e:	e7fe      	b.n	800108e <main+0x162>
 8001090:	2311      	movs	r3, #17
 8001092:	e9cd 380b 	strd	r3, r8, [sp, #44]	; 0x2c
 8001096:	2307      	movs	r3, #7
 8001098:	4620      	mov	r0, r4
 800109a:	a90b      	add	r1, sp, #44	; 0x2c
 800109c:	930d      	str	r3, [sp, #52]	; 0x34
 800109e:	f000 fd15 	bl	8001acc <HAL_ADC_ConfigChannel>
 80010a2:	b108      	cbz	r0, 80010a8 <main+0x17c>
 80010a4:	b672      	cpsid	i
 80010a6:	e7fe      	b.n	80010a6 <main+0x17a>
 80010a8:	4620      	mov	r0, r4
 80010aa:	a90b      	add	r1, sp, #44	; 0x2c
 80010ac:	e9cd 690b 	strd	r6, r9, [sp, #44]	; 0x2c
 80010b0:	f000 fd0c 	bl	8001acc <HAL_ADC_ConfigChannel>
 80010b4:	b108      	cbz	r0, 80010ba <main+0x18e>
 80010b6:	b672      	cpsid	i
 80010b8:	e7fe      	b.n	80010b8 <main+0x18c>
 80010ba:	e9cd 050b 	strd	r0, r5, [sp, #44]	; 0x2c
 80010be:	a90b      	add	r1, sp, #44	; 0x2c
 80010c0:	4620      	mov	r0, r4
 80010c2:	f000 fd03 	bl	8001acc <HAL_ADC_ConfigChannel>
 80010c6:	4603      	mov	r3, r0
 80010c8:	b108      	cbz	r0, 80010ce <main+0x1a2>
 80010ca:	b672      	cpsid	i
 80010cc:	e7fe      	b.n	80010cc <main+0x1a0>
 80010ce:	484d      	ldr	r0, [pc, #308]	; (8001204 <main+0x2d8>)
 80010d0:	f8df e134 	ldr.w	lr, [pc, #308]	; 8001208 <main+0x2dc>
 80010d4:	4a4d      	ldr	r2, [pc, #308]	; (800120c <main+0x2e0>)
 80010d6:	e9c0 3302 	strd	r3, r3, [r0, #8]
 80010da:	e9c0 e200 	strd	lr, r2, [r0]
 80010de:	f44f 4280 	mov.w	r2, #16384	; 0x4000
 80010e2:	e9c0 3306 	strd	r3, r3, [r0, #24]
 80010e6:	e9c0 2304 	strd	r2, r3, [r0, #16]
 80010ea:	6203      	str	r3, [r0, #32]
 80010ec:	f001 fa9c 	bl	8002628 <HAL_I2C_Init>
 80010f0:	4605      	mov	r5, r0
 80010f2:	b108      	cbz	r0, 80010f8 <main+0x1cc>
 80010f4:	b672      	cpsid	i
 80010f6:	e7fe      	b.n	80010f6 <main+0x1ca>
 80010f8:	4601      	mov	r1, r0
 80010fa:	4632      	mov	r2, r6
 80010fc:	a80b      	add	r0, sp, #44	; 0x2c
 80010fe:	f002 fcb7 	bl	8003a70 <memset>
 8001102:	f641 431f 	movw	r3, #7199	; 0x1c1f
 8001106:	f04f 4c80 	mov.w	ip, #1073741824	; 0x40000000
 800110a:	4c41      	ldr	r4, [pc, #260]	; (8001210 <main+0x2e4>)
 800110c:	e9cd 5507 	strd	r5, r5, [sp, #28]
 8001110:	e9c4 c300 	strd	ip, r3, [r4]
 8001114:	f240 13f3 	movw	r3, #499	; 0x1f3
 8001118:	4620      	mov	r0, r4
 800111a:	e9c4 3503 	strd	r3, r5, [r4, #12]
 800111e:	60a5      	str	r5, [r4, #8]
 8001120:	61a5      	str	r5, [r4, #24]
 8001122:	f002 f97b 	bl	800341c <HAL_TIM_Base_Init>
 8001126:	b108      	cbz	r0, 800112c <main+0x200>
 8001128:	b672      	cpsid	i
 800112a:	e7fe      	b.n	800112a <main+0x1fe>
 800112c:	4620      	mov	r0, r4
 800112e:	a90b      	add	r1, sp, #44	; 0x2c
 8001130:	970b      	str	r7, [sp, #44]	; 0x2c
 8001132:	f002 fa5a 	bl	80035ea <HAL_TIM_ConfigClockSource>
 8001136:	b108      	cbz	r0, 800113c <main+0x210>
 8001138:	b672      	cpsid	i
 800113a:	e7fe      	b.n	800113a <main+0x20e>
 800113c:	e9cd 0007 	strd	r0, r0, [sp, #28]
 8001140:	a907      	add	r1, sp, #28
 8001142:	4620      	mov	r0, r4
 8001144:	f002 fb7e 	bl	8003844 <HAL_TIMEx_MasterConfigSynchronization>
 8001148:	4603      	mov	r3, r0
 800114a:	b108      	cbz	r0, 8001150 <main+0x224>
 800114c:	b672      	cpsid	i
 800114e:	e7fe      	b.n	800114e <main+0x222>
 8001150:	f44f 32e1 	mov.w	r2, #115200	; 0x1c200
 8001154:	482f      	ldr	r0, [pc, #188]	; (8001214 <main+0x2e8>)
 8001156:	4f30      	ldr	r7, [pc, #192]	; (8001218 <main+0x2ec>)
 8001158:	e9c0 3302 	strd	r3, r3, [r0, #8]
 800115c:	e9c0 7200 	strd	r7, r2, [r0]
 8001160:	220c      	movs	r2, #12
 8001162:	6103      	str	r3, [r0, #16]
 8001164:	e9c0 2305 	strd	r2, r3, [r0, #20]
 8001168:	61c3      	str	r3, [r0, #28]
 800116a:	f002 fc07 	bl	800397c <HAL_UART_Init>
 800116e:	4604      	mov	r4, r0
 8001170:	b108      	cbz	r0, 8001176 <main+0x24a>
 8001172:	b672      	cpsid	i
 8001174:	e7fe      	b.n	8001174 <main+0x248>
 8001176:	4601      	mov	r1, r0
 8001178:	4632      	mov	r2, r6
 800117a:	a807      	add	r0, sp, #28
 800117c:	f002 fc78 	bl	8003a70 <memset>
 8001180:	221c      	movs	r2, #28
 8001182:	4621      	mov	r1, r4
 8001184:	a80b      	add	r0, sp, #44	; 0x2c
 8001186:	e9cd 4405 	strd	r4, r4, [sp, #20]
 800118a:	f002 fc71 	bl	8003a70 <memset>
 800118e:	2347      	movs	r3, #71	; 0x47
 8001190:	4822      	ldr	r0, [pc, #136]	; (800121c <main+0x2f0>)
 8001192:	4d23      	ldr	r5, [pc, #140]	; (8001220 <main+0x2f4>)
 8001194:	6084      	str	r4, [r0, #8]
 8001196:	e9c0 5300 	strd	r5, r3, [r0]
 800119a:	2314      	movs	r3, #20
 800119c:	6184      	str	r4, [r0, #24]
 800119e:	e9c0 3403 	strd	r3, r4, [r0, #12]
 80011a2:	f002 f93b 	bl	800341c <HAL_TIM_Base_Init>
 80011a6:	b108      	cbz	r0, 80011ac <main+0x280>
 80011a8:	b672      	cpsid	i
 80011aa:	e7fe      	b.n	80011aa <main+0x27e>
 80011ac:	f44f 5380 	mov.w	r3, #4096	; 0x1000
 80011b0:	481a      	ldr	r0, [pc, #104]	; (800121c <main+0x2f0>)
 80011b2:	a907      	add	r1, sp, #28
 80011b4:	9307      	str	r3, [sp, #28]
 80011b6:	f002 fa18 	bl	80035ea <HAL_TIM_ConfigClockSource>
 80011ba:	b108      	cbz	r0, 80011c0 <main+0x294>
 80011bc:	b672      	cpsid	i
 80011be:	e7fe      	b.n	80011be <main+0x292>
 80011c0:	4816      	ldr	r0, [pc, #88]	; (800121c <main+0x2f0>)
 80011c2:	f002 f957 	bl	8003474 <HAL_TIM_PWM_Init>
 80011c6:	b108      	cbz	r0, 80011cc <main+0x2a0>
 80011c8:	b672      	cpsid	i
 80011ca:	e7fe      	b.n	80011ca <main+0x29e>
 80011cc:	e9cd 0005 	strd	r0, r0, [sp, #20]
 80011d0:	a905      	add	r1, sp, #20
 80011d2:	4812      	ldr	r0, [pc, #72]	; (800121c <main+0x2f0>)
 80011d4:	f002 fb36 	bl	8003844 <HAL_TIMEx_MasterConfigSynchronization>
 80011d8:	4602      	mov	r2, r0
 80011da:	b318      	cbz	r0, 8001224 <main+0x2f8>
 80011dc:	b672      	cpsid	i
 80011de:	e7fe      	b.n	80011de <main+0x2b2>
 80011e0:	40021000 	.word	0x40021000
 80011e4:	08003b05 	.word	0x08003b05
 80011e8:	40011000 	.word	0x40011000
 80011ec:	40010800 	.word	0x40010800
 80011f0:	40010c00 	.word	0x40010c00
 80011f4:	10310000 	.word	0x10310000
 80011f8:	10110000 	.word	0x10110000
 80011fc:	200000e4 	.word	0x200000e4
 8001200:	40012400 	.word	0x40012400
 8001204:	20000158 	.word	0x20000158
 8001208:	40005400 	.word	0x40005400
 800120c:	00061a80 	.word	0x00061a80
 8001210:	200001ac 	.word	0x200001ac
 8001214:	2000023c 	.word	0x2000023c
 8001218:	40013800 	.word	0x40013800
 800121c:	200001f4 	.word	0x200001f4
 8001220:	40000400 	.word	0x40000400
 8001224:	2160      	movs	r1, #96	; 0x60
 8001226:	f44f 73c8 	mov.w	r3, #400	; 0x190
 800122a:	900d      	str	r0, [sp, #52]	; 0x34
 800122c:	e9cd 130b 	strd	r1, r3, [sp, #44]	; 0x2c
 8001230:	900f      	str	r0, [sp, #60]	; 0x3c
 8001232:	a90b      	add	r1, sp, #44	; 0x2c
 8001234:	4826      	ldr	r0, [pc, #152]	; (80012d0 <main+0x3a4>)
 8001236:	f002 f975 	bl	8003524 <HAL_TIM_PWM_ConfigChannel>
 800123a:	4605      	mov	r5, r0
 800123c:	b108      	cbz	r0, 8001242 <main+0x316>
 800123e:	b672      	cpsid	i
 8001240:	e7fe      	b.n	8001240 <main+0x314>
 8001242:	4823      	ldr	r0, [pc, #140]	; (80012d0 <main+0x3a4>)
 8001244:	f000 fa94 	bl	8001770 <HAL_TIM_MspPostInit>
 8001248:	4822      	ldr	r0, [pc, #136]	; (80012d4 <main+0x3a8>)
 800124a:	f001 ffe7 	bl	800321c <HAL_TIM_Base_Start_IT>
 800124e:	4822      	ldr	r0, [pc, #136]	; (80012d8 <main+0x3ac>)
 8001250:	f000 fe28 	bl	8001ea4 <HAL_ADCEx_Calibration_Start>
 8001254:	f7ff fbe4 	bl	8000a20 <getState>
 8001258:	4920      	ldr	r1, [pc, #128]	; (80012dc <main+0x3b0>)
 800125a:	4604      	mov	r4, r0
 800125c:	4820      	ldr	r0, [pc, #128]	; (80012e0 <main+0x3b4>)
 800125e:	f7ff fbe3 	bl	8000a28 <cfgInit>
 8001262:	f44f 5100 	mov.w	r1, #8192	; 0x2000
 8001266:	481f      	ldr	r0, [pc, #124]	; (80012e4 <main+0x3b8>)
 8001268:	f7ff fc6a 	bl	8000b40 <heaterInit>
 800126c:	2002      	movs	r0, #2
 800126e:	f7ff fb87 	bl	8000980 <stateSetMode>
 8001272:	f44f 73be 	mov.w	r3, #380	; 0x17c
 8001276:	f44f 70af 	mov.w	r0, #350	; 0x15e
 800127a:	7325      	strb	r5, [r4, #12]
 800127c:	8020      	strh	r0, [r4, #0]
 800127e:	81e3      	strh	r3, [r4, #14]
 8001280:	f7ff fd32 	bl	8000ce8 <encoderSetTick>
 8001284:	8820      	ldrh	r0, [r4, #0]
 8001286:	f7ff fc9b 	bl	8000bc0 <heaterSetTemp>
 800128a:	4811      	ldr	r0, [pc, #68]	; (80012d0 <main+0x3a4>)
 800128c:	f7ff fa52 	bl	8000734 <buzzToneInit>
 8001290:	f7ff fd0e 	bl	8000cb0 <input_init>
 8001294:	f7ff fbd2 	bl	8000a3c <guiInit>
 8001298:	f7ff fa9c 	bl	80007d4 <playHeatTone>
 800129c:	4e12      	ldr	r6, [pc, #72]	; (80012e8 <main+0x3bc>)
 800129e:	4d13      	ldr	r5, [pc, #76]	; (80012ec <main+0x3c0>)
 80012a0:	2180      	movs	r1, #128	; 0x80
 80012a2:	4630      	mov	r0, r6
 80012a4:	f001 f8bb 	bl	800241e <HAL_GPIO_TogglePin>
 80012a8:	f7ff fdfa 	bl	8000ea0 <checkState>
 80012ac:	f7ff fd08 	bl	8000cc0 <isExti>
 80012b0:	b108      	cbz	r0, 80012b6 <main+0x38a>
 80012b2:	f7ff fd0d 	bl	8000cd0 <resetExti>
 80012b6:	f7ff fb43 	bl	8000940 <toneTickHandler>
 80012ba:	782b      	ldrb	r3, [r5, #0]
 80012bc:	2b00      	cmp	r3, #0
 80012be:	d0ef      	beq.n	80012a0 <main+0x374>
 80012c0:	2300      	movs	r3, #0
 80012c2:	702b      	strb	r3, [r5, #0]
 80012c4:	68a0      	ldr	r0, [r4, #8]
 80012c6:	f7ff fcc7 	bl	8000c58 <v2temp>
 80012ca:	8060      	strh	r0, [r4, #2]
 80012cc:	e7e8      	b.n	80012a0 <main+0x374>
 80012ce:	bf00      	nop
 80012d0:	200001f4 	.word	0x200001f4
 80012d4:	200001ac 	.word	0x200001ac
 80012d8:	200000e4 	.word	0x200000e4
 80012dc:	2000023c 	.word	0x2000023c
 80012e0:	20000158 	.word	0x20000158
 80012e4:	40011000 	.word	0x40011000
 80012e8:	40010800 	.word	0x40010800
 80012ec:	200000d6 	.word	0x200000d6

080012f0 <HAL_GPIO_EXTI_Callback>:
 80012f0:	f7ff bd18 	b.w	8000d24 <exti_callback>

080012f4 <HAL_ADC_ConvCpltCallback>:
 80012f4:	b510      	push	{r4, lr}
 80012f6:	2201      	movs	r2, #1
 80012f8:	2102      	movs	r1, #2
 80012fa:	4818      	ldr	r0, [pc, #96]	; (800135c <HAL_ADC_ConvCpltCallback+0x68>)
 80012fc:	f001 f88a 	bl	8002414 <HAL_GPIO_WritePin>
 8001300:	2001      	movs	r0, #1
 8001302:	f7ff fbe7 	bl	8000ad4 <heaterEnable>
 8001306:	f7ff fb8b 	bl	8000a20 <getState>
 800130a:	4b15      	ldr	r3, [pc, #84]	; (8001360 <HAL_ADC_ConvCpltCallback+0x6c>)
 800130c:	689b      	ldr	r3, [r3, #8]
 800130e:	6083      	str	r3, [r0, #8]
 8001310:	f7ff fb86 	bl	8000a20 <getState>
 8001314:	4604      	mov	r4, r0
 8001316:	f7ff fce1 	bl	8000cdc <encoderGetTick>
 800131a:	80a0      	strh	r0, [r4, #4]
 800131c:	f7ff fb80 	bl	8000a20 <getState>
 8001320:	7c03      	ldrb	r3, [r0, #16]
 8001322:	b953      	cbnz	r3, 800133a <HAL_ADC_ConvCpltCallback+0x46>
 8001324:	f7ff fbce 	bl	8000ac4 <heaterOff>
 8001328:	2201      	movs	r2, #1
 800132a:	4b0e      	ldr	r3, [pc, #56]	; (8001364 <HAL_ADC_ConvCpltCallback+0x70>)
 800132c:	701a      	strb	r2, [r3, #0]
 800132e:	4a0e      	ldr	r2, [pc, #56]	; (8001368 <HAL_ADC_ConvCpltCallback+0x74>)
 8001330:	8813      	ldrh	r3, [r2, #0]
 8001332:	3301      	adds	r3, #1
 8001334:	b29b      	uxth	r3, r3
 8001336:	8013      	strh	r3, [r2, #0]
 8001338:	bd10      	pop	{r4, pc}
 800133a:	f7ff fb71 	bl	8000a20 <getState>
 800133e:	7c03      	ldrb	r3, [r0, #16]
 8001340:	2b04      	cmp	r3, #4
 8001342:	d0ef      	beq.n	8001324 <HAL_ADC_ConvCpltCallback+0x30>
 8001344:	f7ff fb6c 	bl	8000a20 <getState>
 8001348:	6884      	ldr	r4, [r0, #8]
 800134a:	f7ff fb69 	bl	8000a20 <getState>
 800134e:	8881      	ldrh	r1, [r0, #4]
 8001350:	4620      	mov	r0, r4
 8001352:	b289      	uxth	r1, r1
 8001354:	f7ff fc4e 	bl	8000bf4 <heaterCheckTemp>
 8001358:	e7e6      	b.n	8001328 <HAL_ADC_ConvCpltCallback+0x34>
 800135a:	bf00      	nop
 800135c:	40010c00 	.word	0x40010c00
 8001360:	200000d8 	.word	0x200000d8
 8001364:	200000d6 	.word	0x200000d6
 8001368:	200000d4 	.word	0x200000d4

0800136c <HAL_TIM_PeriodElapsedCallback>:
 800136c:	b508      	push	{r3, lr}
 800136e:	4b09      	ldr	r3, [pc, #36]	; (8001394 <HAL_TIM_PeriodElapsedCallback+0x28>)
 8001370:	4283      	cmp	r3, r0
 8001372:	d10e      	bne.n	8001392 <HAL_TIM_PeriodElapsedCallback+0x26>
 8001374:	2000      	movs	r0, #0
 8001376:	f7ff fbad 	bl	8000ad4 <heaterEnable>
 800137a:	2200      	movs	r2, #0
 800137c:	2102      	movs	r1, #2
 800137e:	4806      	ldr	r0, [pc, #24]	; (8001398 <HAL_TIM_PeriodElapsedCallback+0x2c>)
 8001380:	f001 f848 	bl	8002414 <HAL_GPIO_WritePin>
 8001384:	e8bd 4008 	ldmia.w	sp!, {r3, lr}
 8001388:	2203      	movs	r2, #3
 800138a:	4904      	ldr	r1, [pc, #16]	; (800139c <HAL_TIM_PeriodElapsedCallback+0x30>)
 800138c:	4804      	ldr	r0, [pc, #16]	; (80013a0 <HAL_TIM_PeriodElapsedCallback+0x34>)
 800138e:	f000 bc57 	b.w	8001c40 <HAL_ADC_Start_DMA>
 8001392:	bd08      	pop	{r3, pc}
 8001394:	200001ac 	.word	0x200001ac
 8001398:	40010c00 	.word	0x40010c00
 800139c:	200000d8 	.word	0x200000d8
 80013a0:	200000e4 	.word	0x200000e4

080013a4 <Error_Handler>:
 80013a4:	b672      	cpsid	i
 80013a6:	e7fe      	b.n	80013a6 <Error_Handler+0x2>

080013a8 <SSD1306_Fill>:
 80013a8:	2800      	cmp	r0, #0
 80013aa:	f44f 6280 	mov.w	r2, #1024	; 0x400
 80013ae:	bf14      	ite	ne
 80013b0:	21ff      	movne	r1, #255	; 0xff
 80013b2:	2100      	moveq	r1, #0
 80013b4:	4801      	ldr	r0, [pc, #4]	; (80013bc <SSD1306_Fill+0x14>)
 80013b6:	f002 bb5b 	b.w	8003a70 <memset>
 80013ba:	bf00      	nop
 80013bc:	2000028a 	.word	0x2000028a

080013c0 <ssd1306_I2C_WriteMulti>:
 80013c0:	b530      	push	{r4, r5, lr}
 80013c2:	2400      	movs	r4, #0
 80013c4:	b0c3      	sub	sp, #268	; 0x10c
 80013c6:	f88d 1008 	strb.w	r1, [sp, #8]
 80013ca:	b2e1      	uxtb	r1, r4
 80013cc:	4299      	cmp	r1, r3
 80013ce:	f104 0501 	add.w	r5, r4, #1
 80013d2:	d30a      	bcc.n	80013ea <ssd1306_I2C_WriteMulti+0x2a>
 80013d4:	220a      	movs	r2, #10
 80013d6:	3301      	adds	r3, #1
 80013d8:	4601      	mov	r1, r0
 80013da:	9200      	str	r2, [sp, #0]
 80013dc:	b29b      	uxth	r3, r3
 80013de:	aa02      	add	r2, sp, #8
 80013e0:	4805      	ldr	r0, [pc, #20]	; (80013f8 <ssd1306_I2C_WriteMulti+0x38>)
 80013e2:	f001 f9c9 	bl	8002778 <HAL_I2C_Master_Transmit>
 80013e6:	b043      	add	sp, #268	; 0x10c
 80013e8:	bd30      	pop	{r4, r5, pc}
 80013ea:	ac02      	add	r4, sp, #8
 80013ec:	440c      	add	r4, r1
 80013ee:	5c51      	ldrb	r1, [r2, r1]
 80013f0:	7061      	strb	r1, [r4, #1]
 80013f2:	462c      	mov	r4, r5
 80013f4:	e7e9      	b.n	80013ca <ssd1306_I2C_WriteMulti+0xa>
 80013f6:	bf00      	nop
 80013f8:	20000158 	.word	0x20000158

080013fc <ssd1306_I2C_Write>:
 80013fc:	b51f      	push	{r0, r1, r2, r3, r4, lr}
 80013fe:	230a      	movs	r3, #10
 8001400:	f88d 100c 	strb.w	r1, [sp, #12]
 8001404:	f88d 200d 	strb.w	r2, [sp, #13]
 8001408:	4601      	mov	r1, r0
 800140a:	9300      	str	r3, [sp, #0]
 800140c:	aa03      	add	r2, sp, #12
 800140e:	2302      	movs	r3, #2
 8001410:	4802      	ldr	r0, [pc, #8]	; (800141c <ssd1306_I2C_Write+0x20>)
 8001412:	f001 f9b1 	bl	8002778 <HAL_I2C_Master_Transmit>
 8001416:	b005      	add	sp, #20
 8001418:	f85d fb04 	ldr.w	pc, [sp], #4
 800141c:	20000158 	.word	0x20000158

08001420 <SSD1306_UpdateScreen>:
 8001420:	b538      	push	{r3, r4, r5, lr}
 8001422:	24b0      	movs	r4, #176	; 0xb0
 8001424:	4d0e      	ldr	r5, [pc, #56]	; (8001460 <SSD1306_UpdateScreen+0x40>)
 8001426:	4622      	mov	r2, r4
 8001428:	2100      	movs	r1, #0
 800142a:	2078      	movs	r0, #120	; 0x78
 800142c:	f7ff ffe6 	bl	80013fc <ssd1306_I2C_Write>
 8001430:	2200      	movs	r2, #0
 8001432:	2078      	movs	r0, #120	; 0x78
 8001434:	4611      	mov	r1, r2
 8001436:	f7ff ffe1 	bl	80013fc <ssd1306_I2C_Write>
 800143a:	3401      	adds	r4, #1
 800143c:	2210      	movs	r2, #16
 800143e:	2100      	movs	r1, #0
 8001440:	2078      	movs	r0, #120	; 0x78
 8001442:	f7ff ffdb 	bl	80013fc <ssd1306_I2C_Write>
 8001446:	b2e4      	uxtb	r4, r4
 8001448:	462a      	mov	r2, r5
 800144a:	2380      	movs	r3, #128	; 0x80
 800144c:	2140      	movs	r1, #64	; 0x40
 800144e:	2078      	movs	r0, #120	; 0x78
 8001450:	f7ff ffb6 	bl	80013c0 <ssd1306_I2C_WriteMulti>
 8001454:	2cb8      	cmp	r4, #184	; 0xb8
 8001456:	f105 0580 	add.w	r5, r5, #128	; 0x80
 800145a:	d1e4      	bne.n	8001426 <SSD1306_UpdateScreen+0x6>
 800145c:	bd38      	pop	{r3, r4, r5, pc}
 800145e:	bf00      	nop
 8001460:	2000028a 	.word	0x2000028a

08001464 <SSD1306_Init>:
 8001464:	b510      	push	{r4, lr}
 8001466:	f644 6320 	movw	r3, #20000	; 0x4e20
 800146a:	2201      	movs	r2, #1
 800146c:	2178      	movs	r1, #120	; 0x78
 800146e:	4852      	ldr	r0, [pc, #328]	; (80015b8 <SSD1306_Init+0x154>)
 8001470:	f001 fa5a 	bl	8002928 <HAL_I2C_IsDeviceReady>
 8001474:	4604      	mov	r4, r0
 8001476:	2800      	cmp	r0, #0
 8001478:	f040 809c 	bne.w	80015b4 <SSD1306_Init+0x150>
 800147c:	4601      	mov	r1, r0
 800147e:	22ae      	movs	r2, #174	; 0xae
 8001480:	2078      	movs	r0, #120	; 0x78
 8001482:	f7ff ffbb 	bl	80013fc <ssd1306_I2C_Write>
 8001486:	2220      	movs	r2, #32
 8001488:	4621      	mov	r1, r4
 800148a:	2078      	movs	r0, #120	; 0x78
 800148c:	f7ff ffb6 	bl	80013fc <ssd1306_I2C_Write>
 8001490:	2210      	movs	r2, #16
 8001492:	4621      	mov	r1, r4
 8001494:	2078      	movs	r0, #120	; 0x78
 8001496:	f7ff ffb1 	bl	80013fc <ssd1306_I2C_Write>
 800149a:	22b0      	movs	r2, #176	; 0xb0
 800149c:	4621      	mov	r1, r4
 800149e:	2078      	movs	r0, #120	; 0x78
 80014a0:	f7ff ffac 	bl	80013fc <ssd1306_I2C_Write>
 80014a4:	22c8      	movs	r2, #200	; 0xc8
 80014a6:	4621      	mov	r1, r4
 80014a8:	2078      	movs	r0, #120	; 0x78
 80014aa:	f7ff ffa7 	bl	80013fc <ssd1306_I2C_Write>
 80014ae:	4622      	mov	r2, r4
 80014b0:	4621      	mov	r1, r4
 80014b2:	2078      	movs	r0, #120	; 0x78
 80014b4:	f7ff ffa2 	bl	80013fc <ssd1306_I2C_Write>
 80014b8:	2210      	movs	r2, #16
 80014ba:	4621      	mov	r1, r4
 80014bc:	2078      	movs	r0, #120	; 0x78
 80014be:	f7ff ff9d 	bl	80013fc <ssd1306_I2C_Write>
 80014c2:	2240      	movs	r2, #64	; 0x40
 80014c4:	4621      	mov	r1, r4
 80014c6:	2078      	movs	r0, #120	; 0x78
 80014c8:	f7ff ff98 	bl	80013fc <ssd1306_I2C_Write>
 80014cc:	2281      	movs	r2, #129	; 0x81
 80014ce:	4621      	mov	r1, r4
 80014d0:	2078      	movs	r0, #120	; 0x78
 80014d2:	f7ff ff93 	bl	80013fc <ssd1306_I2C_Write>
 80014d6:	22ff      	movs	r2, #255	; 0xff
 80014d8:	4621      	mov	r1, r4
 80014da:	2078      	movs	r0, #120	; 0x78
 80014dc:	f7ff ff8e 	bl	80013fc <ssd1306_I2C_Write>
 80014e0:	22a1      	movs	r2, #161	; 0xa1
 80014e2:	4621      	mov	r1, r4
 80014e4:	2078      	movs	r0, #120	; 0x78
 80014e6:	f7ff ff89 	bl	80013fc <ssd1306_I2C_Write>
 80014ea:	22a6      	movs	r2, #166	; 0xa6
 80014ec:	4621      	mov	r1, r4
 80014ee:	2078      	movs	r0, #120	; 0x78
 80014f0:	f7ff ff84 	bl	80013fc <ssd1306_I2C_Write>
 80014f4:	22a8      	movs	r2, #168	; 0xa8
 80014f6:	4621      	mov	r1, r4
 80014f8:	2078      	movs	r0, #120	; 0x78
 80014fa:	f7ff ff7f 	bl	80013fc <ssd1306_I2C_Write>
 80014fe:	223f      	movs	r2, #63	; 0x3f
 8001500:	4621      	mov	r1, r4
 8001502:	2078      	movs	r0, #120	; 0x78
 8001504:	f7ff ff7a 	bl	80013fc <ssd1306_I2C_Write>
 8001508:	22a4      	movs	r2, #164	; 0xa4
 800150a:	4621      	mov	r1, r4
 800150c:	2078      	movs	r0, #120	; 0x78
 800150e:	f7ff ff75 	bl	80013fc <ssd1306_I2C_Write>
 8001512:	22d3      	movs	r2, #211	; 0xd3
 8001514:	4621      	mov	r1, r4
 8001516:	2078      	movs	r0, #120	; 0x78
 8001518:	f7ff ff70 	bl	80013fc <ssd1306_I2C_Write>
 800151c:	4622      	mov	r2, r4
 800151e:	4621      	mov	r1, r4
 8001520:	2078      	movs	r0, #120	; 0x78
 8001522:	f7ff ff6b 	bl	80013fc <ssd1306_I2C_Write>
 8001526:	22d5      	movs	r2, #213	; 0xd5
 8001528:	4621      	mov	r1, r4
 800152a:	2078      	movs	r0, #120	; 0x78
 800152c:	f7ff ff66 	bl	80013fc <ssd1306_I2C_Write>
 8001530:	22f0      	movs	r2, #240	; 0xf0
 8001532:	4621      	mov	r1, r4
 8001534:	2078      	movs	r0, #120	; 0x78
 8001536:	f7ff ff61 	bl	80013fc <ssd1306_I2C_Write>
 800153a:	22d9      	movs	r2, #217	; 0xd9
 800153c:	4621      	mov	r1, r4
 800153e:	2078      	movs	r0, #120	; 0x78
 8001540:	f7ff ff5c 	bl	80013fc <ssd1306_I2C_Write>
 8001544:	2222      	movs	r2, #34	; 0x22
 8001546:	4621      	mov	r1, r4
 8001548:	2078      	movs	r0, #120	; 0x78
 800154a:	f7ff ff57 	bl	80013fc <ssd1306_I2C_Write>
 800154e:	22da      	movs	r2, #218	; 0xda
 8001550:	4621      	mov	r1, r4
 8001552:	2078      	movs	r0, #120	; 0x78
 8001554:	f7ff ff52 	bl	80013fc <ssd1306_I2C_Write>
 8001558:	2212      	movs	r2, #18
 800155a:	4621      	mov	r1, r4
 800155c:	2078      	movs	r0, #120	; 0x78
 800155e:	f7ff ff4d 	bl	80013fc <ssd1306_I2C_Write>
 8001562:	22db      	movs	r2, #219	; 0xdb
 8001564:	4621      	mov	r1, r4
 8001566:	2078      	movs	r0, #120	; 0x78
 8001568:	f7ff ff48 	bl	80013fc <ssd1306_I2C_Write>
 800156c:	2220      	movs	r2, #32
 800156e:	4621      	mov	r1, r4
 8001570:	2078      	movs	r0, #120	; 0x78
 8001572:	f7ff ff43 	bl	80013fc <ssd1306_I2C_Write>
 8001576:	228d      	movs	r2, #141	; 0x8d
 8001578:	4621      	mov	r1, r4
 800157a:	2078      	movs	r0, #120	; 0x78
 800157c:	f7ff ff3e 	bl	80013fc <ssd1306_I2C_Write>
 8001580:	2214      	movs	r2, #20
 8001582:	4621      	mov	r1, r4
 8001584:	2078      	movs	r0, #120	; 0x78
 8001586:	f7ff ff39 	bl	80013fc <ssd1306_I2C_Write>
 800158a:	22af      	movs	r2, #175	; 0xaf
 800158c:	4621      	mov	r1, r4
 800158e:	2078      	movs	r0, #120	; 0x78
 8001590:	f7ff ff34 	bl	80013fc <ssd1306_I2C_Write>
 8001594:	222e      	movs	r2, #46	; 0x2e
 8001596:	4621      	mov	r1, r4
 8001598:	2078      	movs	r0, #120	; 0x78
 800159a:	f7ff ff2f 	bl	80013fc <ssd1306_I2C_Write>
 800159e:	4620      	mov	r0, r4
 80015a0:	f7ff ff02 	bl	80013a8 <SSD1306_Fill>
 80015a4:	f7ff ff3c 	bl	8001420 <SSD1306_UpdateScreen>
 80015a8:	2001      	movs	r0, #1
 80015aa:	4b04      	ldr	r3, [pc, #16]	; (80015bc <SSD1306_Init+0x158>)
 80015ac:	801c      	strh	r4, [r3, #0]
 80015ae:	805c      	strh	r4, [r3, #2]
 80015b0:	7158      	strb	r0, [r3, #5]
 80015b2:	bd10      	pop	{r4, pc}
 80015b4:	2000      	movs	r0, #0
 80015b6:	e7fc      	b.n	80015b2 <SSD1306_Init+0x14e>
 80015b8:	20000158 	.word	0x20000158
 80015bc:	20000284 	.word	0x20000284

080015c0 <HAL_MspInit>:
 80015c0:	4b0e      	ldr	r3, [pc, #56]	; (80015fc <HAL_MspInit+0x3c>)
 80015c2:	b082      	sub	sp, #8
 80015c4:	699a      	ldr	r2, [r3, #24]
 80015c6:	f042 0201 	orr.w	r2, r2, #1
 80015ca:	619a      	str	r2, [r3, #24]
 80015cc:	699a      	ldr	r2, [r3, #24]
 80015ce:	f002 0201 	and.w	r2, r2, #1
 80015d2:	9200      	str	r2, [sp, #0]
 80015d4:	9a00      	ldr	r2, [sp, #0]
 80015d6:	69da      	ldr	r2, [r3, #28]
 80015d8:	f042 5280 	orr.w	r2, r2, #268435456	; 0x10000000
 80015dc:	61da      	str	r2, [r3, #28]
 80015de:	69db      	ldr	r3, [r3, #28]
 80015e0:	4a07      	ldr	r2, [pc, #28]	; (8001600 <HAL_MspInit+0x40>)
 80015e2:	f003 5380 	and.w	r3, r3, #268435456	; 0x10000000
 80015e6:	9301      	str	r3, [sp, #4]
 80015e8:	9b01      	ldr	r3, [sp, #4]
 80015ea:	6853      	ldr	r3, [r2, #4]
 80015ec:	f023 63e0 	bic.w	r3, r3, #117440512	; 0x7000000
 80015f0:	f043 7300 	orr.w	r3, r3, #33554432	; 0x2000000
 80015f4:	6053      	str	r3, [r2, #4]
 80015f6:	b002      	add	sp, #8
 80015f8:	4770      	bx	lr
 80015fa:	bf00      	nop
 80015fc:	40021000 	.word	0x40021000
 8001600:	40010000 	.word	0x40010000

08001604 <HAL_ADC_MspInit>:
 8001604:	b530      	push	{r4, r5, lr}
 8001606:	4605      	mov	r5, r0
 8001608:	b087      	sub	sp, #28
 800160a:	2210      	movs	r2, #16
 800160c:	2100      	movs	r1, #0
 800160e:	a802      	add	r0, sp, #8
 8001610:	f002 fa2e 	bl	8003a70 <memset>
 8001614:	682a      	ldr	r2, [r5, #0]
 8001616:	4b21      	ldr	r3, [pc, #132]	; (800169c <HAL_ADC_MspInit+0x98>)
 8001618:	429a      	cmp	r2, r3
 800161a:	d13c      	bne.n	8001696 <HAL_ADC_MspInit+0x92>
 800161c:	f503 436c 	add.w	r3, r3, #60416	; 0xec00
 8001620:	699a      	ldr	r2, [r3, #24]
 8001622:	481f      	ldr	r0, [pc, #124]	; (80016a0 <HAL_ADC_MspInit+0x9c>)
 8001624:	f442 7200 	orr.w	r2, r2, #512	; 0x200
 8001628:	619a      	str	r2, [r3, #24]
 800162a:	699a      	ldr	r2, [r3, #24]
 800162c:	a902      	add	r1, sp, #8
 800162e:	f402 7200 	and.w	r2, r2, #512	; 0x200
 8001632:	9200      	str	r2, [sp, #0]
 8001634:	9a00      	ldr	r2, [sp, #0]
 8001636:	699a      	ldr	r2, [r3, #24]
 8001638:	4c1a      	ldr	r4, [pc, #104]	; (80016a4 <HAL_ADC_MspInit+0xa0>)
 800163a:	f042 0204 	orr.w	r2, r2, #4
 800163e:	619a      	str	r2, [r3, #24]
 8001640:	699b      	ldr	r3, [r3, #24]
 8001642:	2201      	movs	r2, #1
 8001644:	f003 0304 	and.w	r3, r3, #4
 8001648:	9301      	str	r3, [sp, #4]
 800164a:	9b01      	ldr	r3, [sp, #4]
 800164c:	2303      	movs	r3, #3
 800164e:	e9cd 2302 	strd	r2, r3, [sp, #8]
 8001652:	f000 fe03 	bl	800225c <HAL_GPIO_Init>
 8001656:	2080      	movs	r0, #128	; 0x80
 8001658:	f44f 7200 	mov.w	r2, #512	; 0x200
 800165c:	2300      	movs	r3, #0
 800165e:	e9c4 0203 	strd	r0, r2, [r4, #12]
 8001662:	f44f 6c00 	mov.w	ip, #2048	; 0x800
 8001666:	2220      	movs	r2, #32
 8001668:	490f      	ldr	r1, [pc, #60]	; (80016a8 <HAL_ADC_MspInit+0xa4>)
 800166a:	4620      	mov	r0, r4
 800166c:	e9c4 1300 	strd	r1, r3, [r4]
 8001670:	e9c4 c205 	strd	ip, r2, [r4, #20]
 8001674:	60a3      	str	r3, [r4, #8]
 8001676:	61e3      	str	r3, [r4, #28]
 8001678:	f000 fcea 	bl	8002050 <HAL_DMA_Init>
 800167c:	b108      	cbz	r0, 8001682 <HAL_ADC_MspInit+0x7e>
 800167e:	f7ff fe91 	bl	80013a4 <Error_Handler>
 8001682:	2200      	movs	r2, #0
 8001684:	2012      	movs	r0, #18
 8001686:	622c      	str	r4, [r5, #32]
 8001688:	4611      	mov	r1, r2
 800168a:	6265      	str	r5, [r4, #36]	; 0x24
 800168c:	f000 fc8e 	bl	8001fac <HAL_NVIC_SetPriority>
 8001690:	2012      	movs	r0, #18
 8001692:	f000 fcbb 	bl	800200c <HAL_NVIC_EnableIRQ>
 8001696:	b007      	add	sp, #28
 8001698:	bd30      	pop	{r4, r5, pc}
 800169a:	bf00      	nop
 800169c:	40012400 	.word	0x40012400
 80016a0:	40010800 	.word	0x40010800
 80016a4:	20000114 	.word	0x20000114
 80016a8:	40020008 	.word	0x40020008

080016ac <HAL_I2C_MspInit>:
 80016ac:	b510      	push	{r4, lr}
 80016ae:	4604      	mov	r4, r0
 80016b0:	b086      	sub	sp, #24
 80016b2:	2210      	movs	r2, #16
 80016b4:	2100      	movs	r1, #0
 80016b6:	a802      	add	r0, sp, #8
 80016b8:	f002 f9da 	bl	8003a70 <memset>
 80016bc:	6822      	ldr	r2, [r4, #0]
 80016be:	4b11      	ldr	r3, [pc, #68]	; (8001704 <HAL_I2C_MspInit+0x58>)
 80016c0:	429a      	cmp	r2, r3
 80016c2:	d11c      	bne.n	80016fe <HAL_I2C_MspInit+0x52>
 80016c4:	4c10      	ldr	r4, [pc, #64]	; (8001708 <HAL_I2C_MspInit+0x5c>)
 80016c6:	22c0      	movs	r2, #192	; 0xc0
 80016c8:	69a3      	ldr	r3, [r4, #24]
 80016ca:	4810      	ldr	r0, [pc, #64]	; (800170c <HAL_I2C_MspInit+0x60>)
 80016cc:	f043 0308 	orr.w	r3, r3, #8
 80016d0:	61a3      	str	r3, [r4, #24]
 80016d2:	69a3      	ldr	r3, [r4, #24]
 80016d4:	a902      	add	r1, sp, #8
 80016d6:	f003 0308 	and.w	r3, r3, #8
 80016da:	9300      	str	r3, [sp, #0]
 80016dc:	9b00      	ldr	r3, [sp, #0]
 80016de:	2312      	movs	r3, #18
 80016e0:	e9cd 2302 	strd	r2, r3, [sp, #8]
 80016e4:	2303      	movs	r3, #3
 80016e6:	9305      	str	r3, [sp, #20]
 80016e8:	f000 fdb8 	bl	800225c <HAL_GPIO_Init>
 80016ec:	69e3      	ldr	r3, [r4, #28]
 80016ee:	f443 1300 	orr.w	r3, r3, #2097152	; 0x200000
 80016f2:	61e3      	str	r3, [r4, #28]
 80016f4:	69e3      	ldr	r3, [r4, #28]
 80016f6:	f403 1300 	and.w	r3, r3, #2097152	; 0x200000
 80016fa:	9301      	str	r3, [sp, #4]
 80016fc:	9b01      	ldr	r3, [sp, #4]
 80016fe:	b006      	add	sp, #24
 8001700:	bd10      	pop	{r4, pc}
 8001702:	bf00      	nop
 8001704:	40005400 	.word	0x40005400
 8001708:	40021000 	.word	0x40021000
 800170c:	40010c00 	.word	0x40010c00

08001710 <HAL_TIM_Base_MspInit>:
 8001710:	6803      	ldr	r3, [r0, #0]
 8001712:	b507      	push	{r0, r1, r2, lr}
 8001714:	f1b3 4f80 	cmp.w	r3, #1073741824	; 0x40000000
 8001718:	d115      	bne.n	8001746 <HAL_TIM_Base_MspInit+0x36>
 800171a:	f503 3304 	add.w	r3, r3, #135168	; 0x21000
 800171e:	69da      	ldr	r2, [r3, #28]
 8001720:	201c      	movs	r0, #28
 8001722:	f042 0201 	orr.w	r2, r2, #1
 8001726:	61da      	str	r2, [r3, #28]
 8001728:	2200      	movs	r2, #0
 800172a:	69db      	ldr	r3, [r3, #28]
 800172c:	4611      	mov	r1, r2
 800172e:	f003 0301 	and.w	r3, r3, #1
 8001732:	9300      	str	r3, [sp, #0]
 8001734:	9b00      	ldr	r3, [sp, #0]
 8001736:	f000 fc39 	bl	8001fac <HAL_NVIC_SetPriority>
 800173a:	201c      	movs	r0, #28
 800173c:	b003      	add	sp, #12
 800173e:	f85d eb04 	ldr.w	lr, [sp], #4
 8001742:	f000 bc63 	b.w	800200c <HAL_NVIC_EnableIRQ>
 8001746:	4a08      	ldr	r2, [pc, #32]	; (8001768 <HAL_TIM_Base_MspInit+0x58>)
 8001748:	4293      	cmp	r3, r2
 800174a:	d109      	bne.n	8001760 <HAL_TIM_Base_MspInit+0x50>
 800174c:	4b07      	ldr	r3, [pc, #28]	; (800176c <HAL_TIM_Base_MspInit+0x5c>)
 800174e:	69da      	ldr	r2, [r3, #28]
 8001750:	f042 0202 	orr.w	r2, r2, #2
 8001754:	61da      	str	r2, [r3, #28]
 8001756:	69db      	ldr	r3, [r3, #28]
 8001758:	f003 0302 	and.w	r3, r3, #2
 800175c:	9301      	str	r3, [sp, #4]
 800175e:	9b01      	ldr	r3, [sp, #4]
 8001760:	b003      	add	sp, #12
 8001762:	f85d fb04 	ldr.w	pc, [sp], #4
 8001766:	bf00      	nop
 8001768:	40000400 	.word	0x40000400
 800176c:	40021000 	.word	0x40021000

08001770 <HAL_TIM_MspPostInit>:
 8001770:	b510      	push	{r4, lr}
 8001772:	4604      	mov	r4, r0
 8001774:	b086      	sub	sp, #24
 8001776:	2210      	movs	r2, #16
 8001778:	2100      	movs	r1, #0
 800177a:	a802      	add	r0, sp, #8
 800177c:	f002 f978 	bl	8003a70 <memset>
 8001780:	6822      	ldr	r2, [r4, #0]
 8001782:	4b0c      	ldr	r3, [pc, #48]	; (80017b4 <HAL_TIM_MspPostInit+0x44>)
 8001784:	429a      	cmp	r2, r3
 8001786:	d113      	bne.n	80017b0 <HAL_TIM_MspPostInit+0x40>
 8001788:	f503 3303 	add.w	r3, r3, #134144	; 0x20c00
 800178c:	699a      	ldr	r2, [r3, #24]
 800178e:	480a      	ldr	r0, [pc, #40]	; (80017b8 <HAL_TIM_MspPostInit+0x48>)
 8001790:	f042 0204 	orr.w	r2, r2, #4
 8001794:	619a      	str	r2, [r3, #24]
 8001796:	699b      	ldr	r3, [r3, #24]
 8001798:	2240      	movs	r2, #64	; 0x40
 800179a:	f003 0304 	and.w	r3, r3, #4
 800179e:	9301      	str	r3, [sp, #4]
 80017a0:	9b01      	ldr	r3, [sp, #4]
 80017a2:	2302      	movs	r3, #2
 80017a4:	a902      	add	r1, sp, #8
 80017a6:	e9cd 2302 	strd	r2, r3, [sp, #8]
 80017aa:	9305      	str	r3, [sp, #20]
 80017ac:	f000 fd56 	bl	800225c <HAL_GPIO_Init>
 80017b0:	b006      	add	sp, #24
 80017b2:	bd10      	pop	{r4, pc}
 80017b4:	40000400 	.word	0x40000400
 80017b8:	40010800 	.word	0x40010800

080017bc <HAL_UART_MspInit>:
 80017bc:	b510      	push	{r4, lr}
 80017be:	4604      	mov	r4, r0
 80017c0:	b086      	sub	sp, #24
 80017c2:	2210      	movs	r2, #16
 80017c4:	2100      	movs	r1, #0
 80017c6:	a802      	add	r0, sp, #8
 80017c8:	f002 f952 	bl	8003a70 <memset>
 80017cc:	6822      	ldr	r2, [r4, #0]
 80017ce:	4b17      	ldr	r3, [pc, #92]	; (800182c <HAL_UART_MspInit+0x70>)
 80017d0:	429a      	cmp	r2, r3
 80017d2:	d128      	bne.n	8001826 <HAL_UART_MspInit+0x6a>
 80017d4:	f503 4358 	add.w	r3, r3, #55296	; 0xd800
 80017d8:	699a      	ldr	r2, [r3, #24]
 80017da:	4815      	ldr	r0, [pc, #84]	; (8001830 <HAL_UART_MspInit+0x74>)
 80017dc:	f442 4280 	orr.w	r2, r2, #16384	; 0x4000
 80017e0:	619a      	str	r2, [r3, #24]
 80017e2:	699a      	ldr	r2, [r3, #24]
 80017e4:	a902      	add	r1, sp, #8
 80017e6:	f402 4280 	and.w	r2, r2, #16384	; 0x4000
 80017ea:	9200      	str	r2, [sp, #0]
 80017ec:	9a00      	ldr	r2, [sp, #0]
 80017ee:	699a      	ldr	r2, [r3, #24]
 80017f0:	f042 0204 	orr.w	r2, r2, #4
 80017f4:	619a      	str	r2, [r3, #24]
 80017f6:	699b      	ldr	r3, [r3, #24]
 80017f8:	f44f 7200 	mov.w	r2, #512	; 0x200
 80017fc:	f003 0304 	and.w	r3, r3, #4
 8001800:	9301      	str	r3, [sp, #4]
 8001802:	9b01      	ldr	r3, [sp, #4]
 8001804:	2302      	movs	r3, #2
 8001806:	e9cd 2302 	strd	r2, r3, [sp, #8]
 800180a:	2303      	movs	r3, #3
 800180c:	9305      	str	r3, [sp, #20]
 800180e:	f000 fd25 	bl	800225c <HAL_GPIO_Init>
 8001812:	f44f 6180 	mov.w	r1, #1024	; 0x400
 8001816:	2300      	movs	r3, #0
 8001818:	4805      	ldr	r0, [pc, #20]	; (8001830 <HAL_UART_MspInit+0x74>)
 800181a:	e9cd 1302 	strd	r1, r3, [sp, #8]
 800181e:	a902      	add	r1, sp, #8
 8001820:	9304      	str	r3, [sp, #16]
 8001822:	f000 fd1b 	bl	800225c <HAL_GPIO_Init>
 8001826:	b006      	add	sp, #24
 8001828:	bd10      	pop	{r4, pc}
 800182a:	bf00      	nop
 800182c:	40013800 	.word	0x40013800
 8001830:	40010800 	.word	0x40010800

08001834 <NMI_Handler>:
 8001834:	e7fe      	b.n	8001834 <NMI_Handler>

08001836 <HardFault_Handler>:
 8001836:	e7fe      	b.n	8001836 <HardFault_Handler>

08001838 <MemManage_Handler>:
 8001838:	e7fe      	b.n	8001838 <MemManage_Handler>

0800183a <BusFault_Handler>:
 800183a:	e7fe      	b.n	800183a <BusFault_Handler>

0800183c <UsageFault_Handler>:
 800183c:	e7fe      	b.n	800183c <UsageFault_Handler>

0800183e <SVC_Handler>:
 800183e:	4770      	bx	lr

08001840 <DebugMon_Handler>:
 8001840:	4770      	bx	lr

08001842 <PendSV_Handler>:
 8001842:	4770      	bx	lr

08001844 <SysTick_Handler>:
 8001844:	f000 b882 	b.w	800194c <HAL_IncTick>

08001848 <DMA1_Channel1_IRQHandler>:
 8001848:	4801      	ldr	r0, [pc, #4]	; (8001850 <DMA1_Channel1_IRQHandler+0x8>)
 800184a:	f000 bc73 	b.w	8002134 <HAL_DMA_IRQHandler>
 800184e:	bf00      	nop
 8001850:	20000114 	.word	0x20000114

08001854 <ADC1_2_IRQHandler>:
 8001854:	4801      	ldr	r0, [pc, #4]	; (800185c <ADC1_2_IRQHandler+0x8>)
 8001856:	f000 b8b9 	b.w	80019cc <HAL_ADC_IRQHandler>
 800185a:	bf00      	nop
 800185c:	200000e4 	.word	0x200000e4

08001860 <TIM2_IRQHandler>:
 8001860:	4801      	ldr	r0, [pc, #4]	; (8001868 <TIM2_IRQHandler+0x8>)
 8001862:	f001 bd06 	b.w	8003272 <HAL_TIM_IRQHandler>
 8001866:	bf00      	nop
 8001868:	200001ac 	.word	0x200001ac

0800186c <EXTI15_10_IRQHandler>:
 800186c:	b508      	push	{r3, lr}
 800186e:	f44f 6000 	mov.w	r0, #2048	; 0x800
 8001872:	f000 fddd 	bl	8002430 <HAL_GPIO_EXTI_IRQHandler>
 8001876:	f44f 5080 	mov.w	r0, #4096	; 0x1000
 800187a:	f000 fdd9 	bl	8002430 <HAL_GPIO_EXTI_IRQHandler>
 800187e:	f44f 4080 	mov.w	r0, #16384	; 0x4000
 8001882:	f000 fdd5 	bl	8002430 <HAL_GPIO_EXTI_IRQHandler>
 8001886:	e8bd 4008 	ldmia.w	sp!, {r3, lr}
 800188a:	f44f 4000 	mov.w	r0, #32768	; 0x8000
 800188e:	f000 bdcf 	b.w	8002430 <HAL_GPIO_EXTI_IRQHandler>

08001892 <SystemInit>:
 8001892:	4770      	bx	lr

08001894 <Reset_Handler>:
 8001894:	f7ff fffd 	bl	8001892 <SystemInit>
 8001898:	480b      	ldr	r0, [pc, #44]	; (80018c8 <LoopFillZerobss+0xe>)
 800189a:	490c      	ldr	r1, [pc, #48]	; (80018cc <LoopFillZerobss+0x12>)
 800189c:	4a0c      	ldr	r2, [pc, #48]	; (80018d0 <LoopFillZerobss+0x16>)
 800189e:	2300      	movs	r3, #0
 80018a0:	e002      	b.n	80018a8 <LoopCopyDataInit>

080018a2 <CopyDataInit>:
 80018a2:	58d4      	ldr	r4, [r2, r3]
 80018a4:	50c4      	str	r4, [r0, r3]
 80018a6:	3304      	adds	r3, #4

080018a8 <LoopCopyDataInit>:
 80018a8:	18c4      	adds	r4, r0, r3
 80018aa:	428c      	cmp	r4, r1
 80018ac:	d3f9      	bcc.n	80018a2 <CopyDataInit>
 80018ae:	4a09      	ldr	r2, [pc, #36]	; (80018d4 <LoopFillZerobss+0x1a>)
 80018b0:	4c09      	ldr	r4, [pc, #36]	; (80018d8 <LoopFillZerobss+0x1e>)
 80018b2:	2300      	movs	r3, #0
 80018b4:	e001      	b.n	80018ba <LoopFillZerobss>

080018b6 <FillZerobss>:
 80018b6:	6013      	str	r3, [r2, #0]
 80018b8:	3204      	adds	r2, #4

080018ba <LoopFillZerobss>:
 80018ba:	42a2      	cmp	r2, r4
 80018bc:	d3fb      	bcc.n	80018b6 <FillZerobss>
 80018be:	f002 f8df 	bl	8003a80 <__libc_init_array>
 80018c2:	f7ff fb33 	bl	8000f2c <main>
 80018c6:	4770      	bx	lr
 80018c8:	20000000 	.word	0x20000000
 80018cc:	20000034 	.word	0x20000034
 80018d0:	08003b50 	.word	0x08003b50
 80018d4:	20000034 	.word	0x20000034
 80018d8:	20000690 	.word	0x20000690

080018dc <CAN1_RX1_IRQHandler>:
 80018dc:	e7fe      	b.n	80018dc <CAN1_RX1_IRQHandler>
	...

080018e0 <HAL_InitTick>:
 80018e0:	b538      	push	{r3, r4, r5, lr}
 80018e2:	4b0e      	ldr	r3, [pc, #56]	; (800191c <HAL_InitTick+0x3c>)
 80018e4:	4605      	mov	r5, r0
 80018e6:	781a      	ldrb	r2, [r3, #0]
 80018e8:	f44f 737a 	mov.w	r3, #1000	; 0x3e8
 80018ec:	fbb3 f3f2 	udiv	r3, r3, r2
 80018f0:	4a0b      	ldr	r2, [pc, #44]	; (8001920 <HAL_InitTick+0x40>)
 80018f2:	6810      	ldr	r0, [r2, #0]
 80018f4:	fbb0 f0f3 	udiv	r0, r0, r3
 80018f8:	f000 fb96 	bl	8002028 <HAL_SYSTICK_Config>
 80018fc:	4604      	mov	r4, r0
 80018fe:	b958      	cbnz	r0, 8001918 <HAL_InitTick+0x38>
 8001900:	2d0f      	cmp	r5, #15
 8001902:	d809      	bhi.n	8001918 <HAL_InitTick+0x38>
 8001904:	4602      	mov	r2, r0
 8001906:	4629      	mov	r1, r5
 8001908:	f04f 30ff 	mov.w	r0, #4294967295
 800190c:	f000 fb4e 	bl	8001fac <HAL_NVIC_SetPriority>
 8001910:	4620      	mov	r0, r4
 8001912:	4b04      	ldr	r3, [pc, #16]	; (8001924 <HAL_InitTick+0x44>)
 8001914:	601d      	str	r5, [r3, #0]
 8001916:	bd38      	pop	{r3, r4, r5, pc}
 8001918:	2001      	movs	r0, #1
 800191a:	e7fc      	b.n	8001916 <HAL_InitTick+0x36>
 800191c:	2000002c 	.word	0x2000002c
 8001920:	20000028 	.word	0x20000028
 8001924:	20000030 	.word	0x20000030

08001928 <HAL_Init>:
 8001928:	4a07      	ldr	r2, [pc, #28]	; (8001948 <HAL_Init+0x20>)
 800192a:	b508      	push	{r3, lr}
 800192c:	6813      	ldr	r3, [r2, #0]
 800192e:	2003      	movs	r0, #3
 8001930:	f043 0310 	orr.w	r3, r3, #16
 8001934:	6013      	str	r3, [r2, #0]
 8001936:	f000 fb27 	bl	8001f88 <HAL_NVIC_SetPriorityGrouping>
 800193a:	200f      	movs	r0, #15
 800193c:	f7ff ffd0 	bl	80018e0 <HAL_InitTick>
 8001940:	f7ff fe3e 	bl	80015c0 <HAL_MspInit>
 8001944:	2000      	movs	r0, #0
 8001946:	bd08      	pop	{r3, pc}
 8001948:	40022000 	.word	0x40022000

0800194c <HAL_IncTick>:
 800194c:	4a03      	ldr	r2, [pc, #12]	; (800195c <HAL_IncTick+0x10>)
 800194e:	4b04      	ldr	r3, [pc, #16]	; (8001960 <HAL_IncTick+0x14>)
 8001950:	6811      	ldr	r1, [r2, #0]
 8001952:	781b      	ldrb	r3, [r3, #0]
 8001954:	440b      	add	r3, r1
 8001956:	6013      	str	r3, [r2, #0]
 8001958:	4770      	bx	lr
 800195a:	bf00      	nop
 800195c:	2000068c 	.word	0x2000068c
 8001960:	2000002c 	.word	0x2000002c

08001964 <HAL_GetTick>:
 8001964:	4b01      	ldr	r3, [pc, #4]	; (800196c <HAL_GetTick+0x8>)
 8001966:	6818      	ldr	r0, [r3, #0]
 8001968:	4770      	bx	lr
 800196a:	bf00      	nop
 800196c:	2000068c 	.word	0x2000068c

08001970 <ADC_DMAConvCplt>:
 8001970:	6a43      	ldr	r3, [r0, #36]	; 0x24
 8001972:	b510      	push	{r4, lr}
 8001974:	6a9a      	ldr	r2, [r3, #40]	; 0x28
 8001976:	f012 0f50 	tst.w	r2, #80	; 0x50
 800197a:	d11b      	bne.n	80019b4 <ADC_DMAConvCplt+0x44>
 800197c:	6a9a      	ldr	r2, [r3, #40]	; 0x28
 800197e:	f442 7200 	orr.w	r2, r2, #512	; 0x200
 8001982:	629a      	str	r2, [r3, #40]	; 0x28
 8001984:	681a      	ldr	r2, [r3, #0]
 8001986:	6892      	ldr	r2, [r2, #8]
 8001988:	f402 2260 	and.w	r2, r2, #917504	; 0xe0000
 800198c:	f5b2 2f60 	cmp.w	r2, #917504	; 0xe0000
 8001990:	d10c      	bne.n	80019ac <ADC_DMAConvCplt+0x3c>
 8001992:	7b1a      	ldrb	r2, [r3, #12]
 8001994:	b952      	cbnz	r2, 80019ac <ADC_DMAConvCplt+0x3c>
 8001996:	6a9a      	ldr	r2, [r3, #40]	; 0x28
 8001998:	f422 7280 	bic.w	r2, r2, #256	; 0x100
 800199c:	629a      	str	r2, [r3, #40]	; 0x28
 800199e:	6a9a      	ldr	r2, [r3, #40]	; 0x28
 80019a0:	04d2      	lsls	r2, r2, #19
 80019a2:	bf5e      	ittt	pl
 80019a4:	6a9a      	ldrpl	r2, [r3, #40]	; 0x28
 80019a6:	f042 0201 	orrpl.w	r2, r2, #1
 80019aa:	629a      	strpl	r2, [r3, #40]	; 0x28
 80019ac:	4618      	mov	r0, r3
 80019ae:	f7ff fca1 	bl	80012f4 <HAL_ADC_ConvCpltCallback>
 80019b2:	bd10      	pop	{r4, pc}
 80019b4:	6a1b      	ldr	r3, [r3, #32]
 80019b6:	e8bd 4010 	ldmia.w	sp!, {r4, lr}
 80019ba:	6b1b      	ldr	r3, [r3, #48]	; 0x30
 80019bc:	4718      	bx	r3

080019be <HAL_ADC_ConvHalfCpltCallback>:
 80019be:	4770      	bx	lr

080019c0 <ADC_DMAHalfConvCplt>:
 80019c0:	b508      	push	{r3, lr}
 80019c2:	6a40      	ldr	r0, [r0, #36]	; 0x24
 80019c4:	f7ff fffb 	bl	80019be <HAL_ADC_ConvHalfCpltCallback>
 80019c8:	bd08      	pop	{r3, pc}

080019ca <HAL_ADC_LevelOutOfWindowCallback>:
 80019ca:	4770      	bx	lr

080019cc <HAL_ADC_IRQHandler>:
 80019cc:	6803      	ldr	r3, [r0, #0]
 80019ce:	b570      	push	{r4, r5, r6, lr}
 80019d0:	681d      	ldr	r5, [r3, #0]
 80019d2:	685e      	ldr	r6, [r3, #4]
 80019d4:	4604      	mov	r4, r0
 80019d6:	06b0      	lsls	r0, r6, #26
 80019d8:	d526      	bpl.n	8001a28 <HAL_ADC_IRQHandler+0x5c>
 80019da:	07a9      	lsls	r1, r5, #30
 80019dc:	d524      	bpl.n	8001a28 <HAL_ADC_IRQHandler+0x5c>
 80019de:	6aa2      	ldr	r2, [r4, #40]	; 0x28
 80019e0:	06d2      	lsls	r2, r2, #27
 80019e2:	bf5e      	ittt	pl
 80019e4:	6aa2      	ldrpl	r2, [r4, #40]	; 0x28
 80019e6:	f442 7200 	orrpl.w	r2, r2, #512	; 0x200
 80019ea:	62a2      	strpl	r2, [r4, #40]	; 0x28
 80019ec:	689a      	ldr	r2, [r3, #8]
 80019ee:	f402 2260 	and.w	r2, r2, #917504	; 0xe0000
 80019f2:	f5b2 2f60 	cmp.w	r2, #917504	; 0xe0000
 80019f6:	d110      	bne.n	8001a1a <HAL_ADC_IRQHandler+0x4e>
 80019f8:	7b22      	ldrb	r2, [r4, #12]
 80019fa:	b972      	cbnz	r2, 8001a1a <HAL_ADC_IRQHandler+0x4e>
 80019fc:	685a      	ldr	r2, [r3, #4]
 80019fe:	f022 0220 	bic.w	r2, r2, #32
 8001a02:	605a      	str	r2, [r3, #4]
 8001a04:	6aa3      	ldr	r3, [r4, #40]	; 0x28
 8001a06:	f423 7380 	bic.w	r3, r3, #256	; 0x100
 8001a0a:	62a3      	str	r3, [r4, #40]	; 0x28
 8001a0c:	6aa3      	ldr	r3, [r4, #40]	; 0x28
 8001a0e:	04d8      	lsls	r0, r3, #19
 8001a10:	bf5e      	ittt	pl
 8001a12:	6aa3      	ldrpl	r3, [r4, #40]	; 0x28
 8001a14:	f043 0301 	orrpl.w	r3, r3, #1
 8001a18:	62a3      	strpl	r3, [r4, #40]	; 0x28
 8001a1a:	4620      	mov	r0, r4
 8001a1c:	f7ff fc6a 	bl	80012f4 <HAL_ADC_ConvCpltCallback>
 8001a20:	f06f 0212 	mvn.w	r2, #18
 8001a24:	6823      	ldr	r3, [r4, #0]
 8001a26:	601a      	str	r2, [r3, #0]
 8001a28:	0631      	lsls	r1, r6, #24
 8001a2a:	d530      	bpl.n	8001a8e <HAL_ADC_IRQHandler+0xc2>
 8001a2c:	076a      	lsls	r2, r5, #29
 8001a2e:	d52e      	bpl.n	8001a8e <HAL_ADC_IRQHandler+0xc2>
 8001a30:	6aa3      	ldr	r3, [r4, #40]	; 0x28
 8001a32:	06db      	lsls	r3, r3, #27
 8001a34:	bf5e      	ittt	pl
 8001a36:	6aa3      	ldrpl	r3, [r4, #40]	; 0x28
 8001a38:	f443 5300 	orrpl.w	r3, r3, #8192	; 0x2000
 8001a3c:	62a3      	strpl	r3, [r4, #40]	; 0x28
 8001a3e:	6823      	ldr	r3, [r4, #0]
 8001a40:	689a      	ldr	r2, [r3, #8]
 8001a42:	f402 42e0 	and.w	r2, r2, #28672	; 0x7000
 8001a46:	f5b2 4fe0 	cmp.w	r2, #28672	; 0x7000
 8001a4a:	d00a      	beq.n	8001a62 <HAL_ADC_IRQHandler+0x96>
 8001a4c:	685a      	ldr	r2, [r3, #4]
 8001a4e:	0550      	lsls	r0, r2, #21
 8001a50:	d416      	bmi.n	8001a80 <HAL_ADC_IRQHandler+0xb4>
 8001a52:	689a      	ldr	r2, [r3, #8]
 8001a54:	f402 2260 	and.w	r2, r2, #917504	; 0xe0000
 8001a58:	f5b2 2f60 	cmp.w	r2, #917504	; 0xe0000
 8001a5c:	d110      	bne.n	8001a80 <HAL_ADC_IRQHandler+0xb4>
 8001a5e:	7b22      	ldrb	r2, [r4, #12]
 8001a60:	b972      	cbnz	r2, 8001a80 <HAL_ADC_IRQHandler+0xb4>
 8001a62:	685a      	ldr	r2, [r3, #4]
 8001a64:	f022 0280 	bic.w	r2, r2, #128	; 0x80
 8001a68:	605a      	str	r2, [r3, #4]
 8001a6a:	6aa3      	ldr	r3, [r4, #40]	; 0x28
 8001a6c:	f423 5380 	bic.w	r3, r3, #4096	; 0x1000
 8001a70:	62a3      	str	r3, [r4, #40]	; 0x28
 8001a72:	6aa3      	ldr	r3, [r4, #40]	; 0x28
 8001a74:	05d9      	lsls	r1, r3, #23
 8001a76:	bf5e      	ittt	pl
 8001a78:	6aa3      	ldrpl	r3, [r4, #40]	; 0x28
 8001a7a:	f043 0301 	orrpl.w	r3, r3, #1
 8001a7e:	62a3      	strpl	r3, [r4, #40]	; 0x28
 8001a80:	4620      	mov	r0, r4
 8001a82:	f000 fa7f 	bl	8001f84 <HAL_ADCEx_InjectedConvCpltCallback>
 8001a86:	f06f 020c 	mvn.w	r2, #12
 8001a8a:	6823      	ldr	r3, [r4, #0]
 8001a8c:	601a      	str	r2, [r3, #0]
 8001a8e:	0672      	lsls	r2, r6, #25
 8001a90:	d50c      	bpl.n	8001aac <HAL_ADC_IRQHandler+0xe0>
 8001a92:	07eb      	lsls	r3, r5, #31
 8001a94:	d50a      	bpl.n	8001aac <HAL_ADC_IRQHandler+0xe0>
 8001a96:	6aa3      	ldr	r3, [r4, #40]	; 0x28
 8001a98:	4620      	mov	r0, r4
 8001a9a:	f443 3380 	orr.w	r3, r3, #65536	; 0x10000
 8001a9e:	62a3      	str	r3, [r4, #40]	; 0x28
 8001aa0:	f7ff ff93 	bl	80019ca <HAL_ADC_LevelOutOfWindowCallback>
 8001aa4:	f06f 0201 	mvn.w	r2, #1
 8001aa8:	6823      	ldr	r3, [r4, #0]
 8001aaa:	601a      	str	r2, [r3, #0]
 8001aac:	bd70      	pop	{r4, r5, r6, pc}

08001aae <HAL_ADC_ErrorCallback>:
 8001aae:	4770      	bx	lr

08001ab0 <ADC_DMAError>:
 8001ab0:	6a40      	ldr	r0, [r0, #36]	; 0x24
 8001ab2:	b508      	push	{r3, lr}
 8001ab4:	6a83      	ldr	r3, [r0, #40]	; 0x28
 8001ab6:	f043 0340 	orr.w	r3, r3, #64	; 0x40
 8001aba:	6283      	str	r3, [r0, #40]	; 0x28
 8001abc:	6ac3      	ldr	r3, [r0, #44]	; 0x2c
 8001abe:	f043 0304 	orr.w	r3, r3, #4
 8001ac2:	62c3      	str	r3, [r0, #44]	; 0x2c
 8001ac4:	f7ff fff3 	bl	8001aae <HAL_ADC_ErrorCallback>
 8001ac8:	bd08      	pop	{r3, pc}
	...

08001acc <HAL_ADC_ConfigChannel>:
 8001acc:	2300      	movs	r3, #0
 8001ace:	b573      	push	{r0, r1, r4, r5, r6, lr}
 8001ad0:	9301      	str	r3, [sp, #4]
 8001ad2:	f890 3024 	ldrb.w	r3, [r0, #36]	; 0x24
 8001ad6:	4604      	mov	r4, r0
 8001ad8:	2b01      	cmp	r3, #1
 8001ada:	d06c      	beq.n	8001bb6 <HAL_ADC_ConfigChannel+0xea>
 8001adc:	2301      	movs	r3, #1
 8001ade:	f880 3024 	strb.w	r3, [r0, #36]	; 0x24
 8001ae2:	684d      	ldr	r5, [r1, #4]
 8001ae4:	6802      	ldr	r2, [r0, #0]
 8001ae6:	2d06      	cmp	r5, #6
 8001ae8:	6808      	ldr	r0, [r1, #0]
 8001aea:	eb05 0385 	add.w	r3, r5, r5, lsl #2
 8001aee:	d822      	bhi.n	8001b36 <HAL_ADC_ConfigChannel+0x6a>
 8001af0:	261f      	movs	r6, #31
 8001af2:	6b55      	ldr	r5, [r2, #52]	; 0x34
 8001af4:	3b05      	subs	r3, #5
 8001af6:	409e      	lsls	r6, r3
 8001af8:	ea25 0506 	bic.w	r5, r5, r6
 8001afc:	fa00 f303 	lsl.w	r3, r0, r3
 8001b00:	432b      	orrs	r3, r5
 8001b02:	6353      	str	r3, [r2, #52]	; 0x34
 8001b04:	2809      	cmp	r0, #9
 8001b06:	688b      	ldr	r3, [r1, #8]
 8001b08:	eb00 0540 	add.w	r5, r0, r0, lsl #1
 8001b0c:	f04f 0107 	mov.w	r1, #7
 8001b10:	d929      	bls.n	8001b66 <HAL_ADC_ConfigChannel+0x9a>
 8001b12:	68d6      	ldr	r6, [r2, #12]
 8001b14:	3d1e      	subs	r5, #30
 8001b16:	40a9      	lsls	r1, r5
 8001b18:	ea26 0101 	bic.w	r1, r6, r1
 8001b1c:	40ab      	lsls	r3, r5
 8001b1e:	430b      	orrs	r3, r1
 8001b20:	60d3      	str	r3, [r2, #12]
 8001b22:	f1a0 0310 	sub.w	r3, r0, #16
 8001b26:	2b01      	cmp	r3, #1
 8001b28:	d925      	bls.n	8001b76 <HAL_ADC_ConfigChannel+0xaa>
 8001b2a:	2000      	movs	r0, #0
 8001b2c:	2300      	movs	r3, #0
 8001b2e:	f884 3024 	strb.w	r3, [r4, #36]	; 0x24
 8001b32:	b002      	add	sp, #8
 8001b34:	bd70      	pop	{r4, r5, r6, pc}
 8001b36:	2d0c      	cmp	r5, #12
 8001b38:	f04f 051f 	mov.w	r5, #31
 8001b3c:	d809      	bhi.n	8001b52 <HAL_ADC_ConfigChannel+0x86>
 8001b3e:	6b16      	ldr	r6, [r2, #48]	; 0x30
 8001b40:	3b23      	subs	r3, #35	; 0x23
 8001b42:	409d      	lsls	r5, r3
 8001b44:	ea26 0505 	bic.w	r5, r6, r5
 8001b48:	fa00 f303 	lsl.w	r3, r0, r3
 8001b4c:	432b      	orrs	r3, r5
 8001b4e:	6313      	str	r3, [r2, #48]	; 0x30
 8001b50:	e7d8      	b.n	8001b04 <HAL_ADC_ConfigChannel+0x38>
 8001b52:	6ad6      	ldr	r6, [r2, #44]	; 0x2c
 8001b54:	3b41      	subs	r3, #65	; 0x41
 8001b56:	409d      	lsls	r5, r3
 8001b58:	ea26 0505 	bic.w	r5, r6, r5
 8001b5c:	fa00 f303 	lsl.w	r3, r0, r3
 8001b60:	432b      	orrs	r3, r5
 8001b62:	62d3      	str	r3, [r2, #44]	; 0x2c
 8001b64:	e7ce      	b.n	8001b04 <HAL_ADC_ConfigChannel+0x38>
 8001b66:	6910      	ldr	r0, [r2, #16]
 8001b68:	40a9      	lsls	r1, r5
 8001b6a:	ea20 0101 	bic.w	r1, r0, r1
 8001b6e:	40ab      	lsls	r3, r5
 8001b70:	430b      	orrs	r3, r1
 8001b72:	6113      	str	r3, [r2, #16]
 8001b74:	e7d9      	b.n	8001b2a <HAL_ADC_ConfigChannel+0x5e>
 8001b76:	4b11      	ldr	r3, [pc, #68]	; (8001bbc <HAL_ADC_ConfigChannel+0xf0>)
 8001b78:	429a      	cmp	r2, r3
 8001b7a:	d116      	bne.n	8001baa <HAL_ADC_ConfigChannel+0xde>
 8001b7c:	6893      	ldr	r3, [r2, #8]
 8001b7e:	021b      	lsls	r3, r3, #8
 8001b80:	d4d3      	bmi.n	8001b2a <HAL_ADC_ConfigChannel+0x5e>
 8001b82:	6893      	ldr	r3, [r2, #8]
 8001b84:	2810      	cmp	r0, #16
 8001b86:	f443 0300 	orr.w	r3, r3, #8388608	; 0x800000
 8001b8a:	6093      	str	r3, [r2, #8]
 8001b8c:	d1cd      	bne.n	8001b2a <HAL_ADC_ConfigChannel+0x5e>
 8001b8e:	4b0c      	ldr	r3, [pc, #48]	; (8001bc0 <HAL_ADC_ConfigChannel+0xf4>)
 8001b90:	4a0c      	ldr	r2, [pc, #48]	; (8001bc4 <HAL_ADC_ConfigChannel+0xf8>)
 8001b92:	681b      	ldr	r3, [r3, #0]
 8001b94:	fbb3 f3f2 	udiv	r3, r3, r2
 8001b98:	220a      	movs	r2, #10
 8001b9a:	4353      	muls	r3, r2
 8001b9c:	9301      	str	r3, [sp, #4]
 8001b9e:	9b01      	ldr	r3, [sp, #4]
 8001ba0:	2b00      	cmp	r3, #0
 8001ba2:	d0c2      	beq.n	8001b2a <HAL_ADC_ConfigChannel+0x5e>
 8001ba4:	9b01      	ldr	r3, [sp, #4]
 8001ba6:	3b01      	subs	r3, #1
 8001ba8:	e7f8      	b.n	8001b9c <HAL_ADC_ConfigChannel+0xd0>
 8001baa:	6aa3      	ldr	r3, [r4, #40]	; 0x28
 8001bac:	2001      	movs	r0, #1
 8001bae:	f043 0320 	orr.w	r3, r3, #32
 8001bb2:	62a3      	str	r3, [r4, #40]	; 0x28
 8001bb4:	e7ba      	b.n	8001b2c <HAL_ADC_ConfigChannel+0x60>
 8001bb6:	2002      	movs	r0, #2
 8001bb8:	e7bb      	b.n	8001b32 <HAL_ADC_ConfigChannel+0x66>
 8001bba:	bf00      	nop
 8001bbc:	40012400 	.word	0x40012400
 8001bc0:	20000028 	.word	0x20000028
 8001bc4:	000f4240 	.word	0x000f4240

08001bc8 <ADC_Enable>:
 8001bc8:	2300      	movs	r3, #0
 8001bca:	b537      	push	{r0, r1, r2, r4, r5, lr}
 8001bcc:	9301      	str	r3, [sp, #4]
 8001bce:	6803      	ldr	r3, [r0, #0]
 8001bd0:	4604      	mov	r4, r0
 8001bd2:	689a      	ldr	r2, [r3, #8]
 8001bd4:	07d2      	lsls	r2, r2, #31
 8001bd6:	d502      	bpl.n	8001bde <ADC_Enable+0x16>
 8001bd8:	2000      	movs	r0, #0
 8001bda:	b003      	add	sp, #12
 8001bdc:	bd30      	pop	{r4, r5, pc}
 8001bde:	689a      	ldr	r2, [r3, #8]
 8001be0:	f042 0201 	orr.w	r2, r2, #1
 8001be4:	609a      	str	r2, [r3, #8]
 8001be6:	4b14      	ldr	r3, [pc, #80]	; (8001c38 <ADC_Enable+0x70>)
 8001be8:	4a14      	ldr	r2, [pc, #80]	; (8001c3c <ADC_Enable+0x74>)
 8001bea:	681b      	ldr	r3, [r3, #0]
 8001bec:	fbb3 f3f2 	udiv	r3, r3, r2
 8001bf0:	9301      	str	r3, [sp, #4]
 8001bf2:	9b01      	ldr	r3, [sp, #4]
 8001bf4:	b9e3      	cbnz	r3, 8001c30 <ADC_Enable+0x68>
 8001bf6:	f7ff feb5 	bl	8001964 <HAL_GetTick>
 8001bfa:	4605      	mov	r5, r0
 8001bfc:	6823      	ldr	r3, [r4, #0]
 8001bfe:	689b      	ldr	r3, [r3, #8]
 8001c00:	07db      	lsls	r3, r3, #31
 8001c02:	d4e9      	bmi.n	8001bd8 <ADC_Enable+0x10>
 8001c04:	f7ff feae 	bl	8001964 <HAL_GetTick>
 8001c08:	1b40      	subs	r0, r0, r5
 8001c0a:	2802      	cmp	r0, #2
 8001c0c:	d9f6      	bls.n	8001bfc <ADC_Enable+0x34>
 8001c0e:	6823      	ldr	r3, [r4, #0]
 8001c10:	689b      	ldr	r3, [r3, #8]
 8001c12:	f013 0301 	ands.w	r3, r3, #1
 8001c16:	d1f1      	bne.n	8001bfc <ADC_Enable+0x34>
 8001c18:	6aa2      	ldr	r2, [r4, #40]	; 0x28
 8001c1a:	2001      	movs	r0, #1
 8001c1c:	f042 0210 	orr.w	r2, r2, #16
 8001c20:	62a2      	str	r2, [r4, #40]	; 0x28
 8001c22:	6ae2      	ldr	r2, [r4, #44]	; 0x2c
 8001c24:	f884 3024 	strb.w	r3, [r4, #36]	; 0x24
 8001c28:	f042 0201 	orr.w	r2, r2, #1
 8001c2c:	62e2      	str	r2, [r4, #44]	; 0x2c
 8001c2e:	e7d4      	b.n	8001bda <ADC_Enable+0x12>
 8001c30:	9b01      	ldr	r3, [sp, #4]
 8001c32:	3b01      	subs	r3, #1
 8001c34:	e7dc      	b.n	8001bf0 <ADC_Enable+0x28>
 8001c36:	bf00      	nop
 8001c38:	20000028 	.word	0x20000028
 8001c3c:	000f4240 	.word	0x000f4240

08001c40 <HAL_ADC_Start_DMA>:
 8001c40:	e92d 41f0 	stmdb	sp!, {r4, r5, r6, r7, r8, lr}
 8001c44:	4b40      	ldr	r3, [pc, #256]	; (8001d48 <HAL_ADC_Start_DMA+0x108>)
 8001c46:	4690      	mov	r8, r2
 8001c48:	6802      	ldr	r2, [r0, #0]
 8001c4a:	4604      	mov	r4, r0
 8001c4c:	429a      	cmp	r2, r3
 8001c4e:	460f      	mov	r7, r1
 8001c50:	d002      	beq.n	8001c58 <HAL_ADC_Start_DMA+0x18>
 8001c52:	493e      	ldr	r1, [pc, #248]	; (8001d4c <HAL_ADC_Start_DMA+0x10c>)
 8001c54:	428a      	cmp	r2, r1
 8001c56:	d103      	bne.n	8001c60 <HAL_ADC_Start_DMA+0x20>
 8001c58:	685b      	ldr	r3, [r3, #4]
 8001c5a:	f413 2f70 	tst.w	r3, #983040	; 0xf0000
 8001c5e:	d16e      	bne.n	8001d3e <HAL_ADC_Start_DMA+0xfe>
 8001c60:	f894 3024 	ldrb.w	r3, [r4, #36]	; 0x24
 8001c64:	2b01      	cmp	r3, #1
 8001c66:	d06c      	beq.n	8001d42 <HAL_ADC_Start_DMA+0x102>
 8001c68:	2301      	movs	r3, #1
 8001c6a:	4620      	mov	r0, r4
 8001c6c:	f884 3024 	strb.w	r3, [r4, #36]	; 0x24
 8001c70:	f7ff ffaa 	bl	8001bc8 <ADC_Enable>
 8001c74:	4606      	mov	r6, r0
 8001c76:	2800      	cmp	r0, #0
 8001c78:	d15d      	bne.n	8001d36 <HAL_ADC_Start_DMA+0xf6>
 8001c7a:	6aa5      	ldr	r5, [r4, #40]	; 0x28
 8001c7c:	6821      	ldr	r1, [r4, #0]
 8001c7e:	4b33      	ldr	r3, [pc, #204]	; (8001d4c <HAL_ADC_Start_DMA+0x10c>)
 8001c80:	f425 6570 	bic.w	r5, r5, #3840	; 0xf00
 8001c84:	f025 0501 	bic.w	r5, r5, #1
 8001c88:	f445 7580 	orr.w	r5, r5, #256	; 0x100
 8001c8c:	4299      	cmp	r1, r3
 8001c8e:	62a5      	str	r5, [r4, #40]	; 0x28
 8001c90:	d104      	bne.n	8001c9c <HAL_ADC_Start_DMA+0x5c>
 8001c92:	4a2d      	ldr	r2, [pc, #180]	; (8001d48 <HAL_ADC_Start_DMA+0x108>)
 8001c94:	6853      	ldr	r3, [r2, #4]
 8001c96:	f413 2f70 	tst.w	r3, #983040	; 0xf0000
 8001c9a:	d13e      	bne.n	8001d1a <HAL_ADC_Start_DMA+0xda>
 8001c9c:	6aa3      	ldr	r3, [r4, #40]	; 0x28
 8001c9e:	f423 1380 	bic.w	r3, r3, #1048576	; 0x100000
 8001ca2:	62a3      	str	r3, [r4, #40]	; 0x28
 8001ca4:	684b      	ldr	r3, [r1, #4]
 8001ca6:	055a      	lsls	r2, r3, #21
 8001ca8:	d505      	bpl.n	8001cb6 <HAL_ADC_Start_DMA+0x76>
 8001caa:	6aa3      	ldr	r3, [r4, #40]	; 0x28
 8001cac:	f423 5340 	bic.w	r3, r3, #12288	; 0x3000
 8001cb0:	f443 5380 	orr.w	r3, r3, #4096	; 0x1000
 8001cb4:	62a3      	str	r3, [r4, #40]	; 0x28
 8001cb6:	6aa3      	ldr	r3, [r4, #40]	; 0x28
 8001cb8:	6a20      	ldr	r0, [r4, #32]
 8001cba:	f413 5380 	ands.w	r3, r3, #4096	; 0x1000
 8001cbe:	bf18      	it	ne
 8001cc0:	6ae3      	ldrne	r3, [r4, #44]	; 0x2c
 8001cc2:	463a      	mov	r2, r7
 8001cc4:	bf18      	it	ne
 8001cc6:	f023 0306 	bicne.w	r3, r3, #6
 8001cca:	62e3      	str	r3, [r4, #44]	; 0x2c
 8001ccc:	2300      	movs	r3, #0
 8001cce:	f884 3024 	strb.w	r3, [r4, #36]	; 0x24
 8001cd2:	4b1f      	ldr	r3, [pc, #124]	; (8001d50 <HAL_ADC_Start_DMA+0x110>)
 8001cd4:	314c      	adds	r1, #76	; 0x4c
 8001cd6:	6283      	str	r3, [r0, #40]	; 0x28
 8001cd8:	4b1e      	ldr	r3, [pc, #120]	; (8001d54 <HAL_ADC_Start_DMA+0x114>)
 8001cda:	62c3      	str	r3, [r0, #44]	; 0x2c
 8001cdc:	4b1e      	ldr	r3, [pc, #120]	; (8001d58 <HAL_ADC_Start_DMA+0x118>)
 8001cde:	6303      	str	r3, [r0, #48]	; 0x30
 8001ce0:	f06f 0302 	mvn.w	r3, #2
 8001ce4:	f841 3c4c 	str.w	r3, [r1, #-76]
 8001ce8:	f851 3c44 	ldr.w	r3, [r1, #-68]
 8001cec:	f443 7380 	orr.w	r3, r3, #256	; 0x100
 8001cf0:	f841 3c44 	str.w	r3, [r1, #-68]
 8001cf4:	4643      	mov	r3, r8
 8001cf6:	f000 f9dd 	bl	80020b4 <HAL_DMA_Start_IT>
 8001cfa:	6823      	ldr	r3, [r4, #0]
 8001cfc:	689a      	ldr	r2, [r3, #8]
 8001cfe:	f402 2260 	and.w	r2, r2, #917504	; 0xe0000
 8001d02:	f5b2 2f60 	cmp.w	r2, #917504	; 0xe0000
 8001d06:	689a      	ldr	r2, [r3, #8]
 8001d08:	bf0c      	ite	eq
 8001d0a:	f442 02a0 	orreq.w	r2, r2, #5242880	; 0x500000
 8001d0e:	f442 1280 	orrne.w	r2, r2, #1048576	; 0x100000
 8001d12:	609a      	str	r2, [r3, #8]
 8001d14:	4630      	mov	r0, r6
 8001d16:	e8bd 81f0 	ldmia.w	sp!, {r4, r5, r6, r7, r8, pc}
 8001d1a:	6aa3      	ldr	r3, [r4, #40]	; 0x28
 8001d1c:	f443 1380 	orr.w	r3, r3, #1048576	; 0x100000
 8001d20:	62a3      	str	r3, [r4, #40]	; 0x28
 8001d22:	6853      	ldr	r3, [r2, #4]
 8001d24:	055b      	lsls	r3, r3, #21
 8001d26:	bf41      	itttt	mi
 8001d28:	6aa0      	ldrmi	r0, [r4, #40]	; 0x28
 8001d2a:	f420 5040 	bicmi.w	r0, r0, #12288	; 0x3000
 8001d2e:	f440 5080 	orrmi.w	r0, r0, #4096	; 0x1000
 8001d32:	62a0      	strmi	r0, [r4, #40]	; 0x28
 8001d34:	e7bf      	b.n	8001cb6 <HAL_ADC_Start_DMA+0x76>
 8001d36:	2300      	movs	r3, #0
 8001d38:	f884 3024 	strb.w	r3, [r4, #36]	; 0x24
 8001d3c:	e7ea      	b.n	8001d14 <HAL_ADC_Start_DMA+0xd4>
 8001d3e:	2601      	movs	r6, #1
 8001d40:	e7e8      	b.n	8001d14 <HAL_ADC_Start_DMA+0xd4>
 8001d42:	2602      	movs	r6, #2
 8001d44:	e7e6      	b.n	8001d14 <HAL_ADC_Start_DMA+0xd4>
 8001d46:	bf00      	nop
 8001d48:	40012400 	.word	0x40012400
 8001d4c:	40012800 	.word	0x40012800
 8001d50:	08001971 	.word	0x08001971
 8001d54:	080019c1 	.word	0x080019c1
 8001d58:	08001ab1 	.word	0x08001ab1

08001d5c <ADC_ConversionStop_Disable>:
 8001d5c:	b538      	push	{r3, r4, r5, lr}
 8001d5e:	6803      	ldr	r3, [r0, #0]
 8001d60:	4604      	mov	r4, r0
 8001d62:	689a      	ldr	r2, [r3, #8]
 8001d64:	07d1      	lsls	r1, r2, #31
 8001d66:	d401      	bmi.n	8001d6c <ADC_ConversionStop_Disable+0x10>
 8001d68:	2000      	movs	r0, #0
 8001d6a:	bd38      	pop	{r3, r4, r5, pc}
 8001d6c:	689a      	ldr	r2, [r3, #8]
 8001d6e:	f022 0201 	bic.w	r2, r2, #1
 8001d72:	609a      	str	r2, [r3, #8]
 8001d74:	f7ff fdf6 	bl	8001964 <HAL_GetTick>
 8001d78:	4605      	mov	r5, r0
 8001d7a:	6823      	ldr	r3, [r4, #0]
 8001d7c:	689b      	ldr	r3, [r3, #8]
 8001d7e:	07db      	lsls	r3, r3, #31
 8001d80:	d5f2      	bpl.n	8001d68 <ADC_ConversionStop_Disable+0xc>
 8001d82:	f7ff fdef 	bl	8001964 <HAL_GetTick>
 8001d86:	1b40      	subs	r0, r0, r5
 8001d88:	2802      	cmp	r0, #2
 8001d8a:	d9f6      	bls.n	8001d7a <ADC_ConversionStop_Disable+0x1e>
 8001d8c:	6823      	ldr	r3, [r4, #0]
 8001d8e:	689b      	ldr	r3, [r3, #8]
 8001d90:	07da      	lsls	r2, r3, #31
 8001d92:	d5f2      	bpl.n	8001d7a <ADC_ConversionStop_Disable+0x1e>
 8001d94:	6aa3      	ldr	r3, [r4, #40]	; 0x28
 8001d96:	2001      	movs	r0, #1
 8001d98:	f043 0310 	orr.w	r3, r3, #16
 8001d9c:	62a3      	str	r3, [r4, #40]	; 0x28
 8001d9e:	6ae3      	ldr	r3, [r4, #44]	; 0x2c
 8001da0:	f043 0301 	orr.w	r3, r3, #1
 8001da4:	62e3      	str	r3, [r4, #44]	; 0x2c
 8001da6:	e7e0      	b.n	8001d6a <ADC_ConversionStop_Disable+0xe>

08001da8 <HAL_ADC_Init>:
 8001da8:	b5f8      	push	{r3, r4, r5, r6, r7, lr}
 8001daa:	4604      	mov	r4, r0
 8001dac:	2800      	cmp	r0, #0
 8001dae:	d06d      	beq.n	8001e8c <HAL_ADC_Init+0xe4>
 8001db0:	6a83      	ldr	r3, [r0, #40]	; 0x28
 8001db2:	b923      	cbnz	r3, 8001dbe <HAL_ADC_Init+0x16>
 8001db4:	62c3      	str	r3, [r0, #44]	; 0x2c
 8001db6:	f880 3024 	strb.w	r3, [r0, #36]	; 0x24
 8001dba:	f7ff fc23 	bl	8001604 <HAL_ADC_MspInit>
 8001dbe:	4620      	mov	r0, r4
 8001dc0:	f7ff ffcc 	bl	8001d5c <ADC_ConversionStop_Disable>
 8001dc4:	6aa3      	ldr	r3, [r4, #40]	; 0x28
 8001dc6:	f013 0310 	ands.w	r3, r3, #16
 8001dca:	d161      	bne.n	8001e90 <HAL_ADC_Init+0xe8>
 8001dcc:	2800      	cmp	r0, #0
 8001dce:	d15f      	bne.n	8001e90 <HAL_ADC_Init+0xe8>
 8001dd0:	6aa2      	ldr	r2, [r4, #40]	; 0x28
 8001dd2:	6861      	ldr	r1, [r4, #4]
 8001dd4:	f422 5288 	bic.w	r2, r2, #4352	; 0x1100
 8001dd8:	f022 0202 	bic.w	r2, r2, #2
 8001ddc:	f042 0202 	orr.w	r2, r2, #2
 8001de0:	69e5      	ldr	r5, [r4, #28]
 8001de2:	68a6      	ldr	r6, [r4, #8]
 8001de4:	62a2      	str	r2, [r4, #40]	; 0x28
 8001de6:	7b22      	ldrb	r2, [r4, #12]
 8001de8:	4329      	orrs	r1, r5
 8001dea:	f5b6 7f80 	cmp.w	r6, #256	; 0x100
 8001dee:	ea41 0142 	orr.w	r1, r1, r2, lsl #1
 8001df2:	d036      	beq.n	8001e62 <HAL_ADC_Init+0xba>
 8001df4:	1e77      	subs	r7, r6, #1
 8001df6:	427d      	negs	r5, r7
 8001df8:	417d      	adcs	r5, r7
 8001dfa:	022d      	lsls	r5, r5, #8
 8001dfc:	7d27      	ldrb	r7, [r4, #20]
 8001dfe:	2f01      	cmp	r7, #1
 8001e00:	d106      	bne.n	8001e10 <HAL_ADC_Init+0x68>
 8001e02:	bb82      	cbnz	r2, 8001e66 <HAL_ADC_Init+0xbe>
 8001e04:	69a2      	ldr	r2, [r4, #24]
 8001e06:	3a01      	subs	r2, #1
 8001e08:	ea45 3242 	orr.w	r2, r5, r2, lsl #13
 8001e0c:	f442 6500 	orr.w	r5, r2, #2048	; 0x800
 8001e10:	6822      	ldr	r2, [r4, #0]
 8001e12:	f5b6 7f80 	cmp.w	r6, #256	; 0x100
 8001e16:	6857      	ldr	r7, [r2, #4]
 8001e18:	f427 4769 	bic.w	r7, r7, #59648	; 0xe900
 8001e1c:	ea45 0507 	orr.w	r5, r5, r7
 8001e20:	6055      	str	r5, [r2, #4]
 8001e22:	6897      	ldr	r7, [r2, #8]
 8001e24:	4d1d      	ldr	r5, [pc, #116]	; (8001e9c <HAL_ADC_Init+0xf4>)
 8001e26:	ea05 0507 	and.w	r5, r5, r7
 8001e2a:	ea45 0501 	orr.w	r5, r5, r1
 8001e2e:	6095      	str	r5, [r2, #8]
 8001e30:	d001      	beq.n	8001e36 <HAL_ADC_Init+0x8e>
 8001e32:	2e01      	cmp	r6, #1
 8001e34:	d102      	bne.n	8001e3c <HAL_ADC_Init+0x94>
 8001e36:	6923      	ldr	r3, [r4, #16]
 8001e38:	3b01      	subs	r3, #1
 8001e3a:	051b      	lsls	r3, r3, #20
 8001e3c:	6ad5      	ldr	r5, [r2, #44]	; 0x2c
 8001e3e:	f425 0570 	bic.w	r5, r5, #15728640	; 0xf00000
 8001e42:	432b      	orrs	r3, r5
 8001e44:	62d3      	str	r3, [r2, #44]	; 0x2c
 8001e46:	6892      	ldr	r2, [r2, #8]
 8001e48:	4b15      	ldr	r3, [pc, #84]	; (8001ea0 <HAL_ADC_Init+0xf8>)
 8001e4a:	4013      	ands	r3, r2
 8001e4c:	4299      	cmp	r1, r3
 8001e4e:	d113      	bne.n	8001e78 <HAL_ADC_Init+0xd0>
 8001e50:	2300      	movs	r3, #0
 8001e52:	62e3      	str	r3, [r4, #44]	; 0x2c
 8001e54:	6aa3      	ldr	r3, [r4, #40]	; 0x28
 8001e56:	f023 0303 	bic.w	r3, r3, #3
 8001e5a:	f043 0301 	orr.w	r3, r3, #1
 8001e5e:	62a3      	str	r3, [r4, #40]	; 0x28
 8001e60:	bdf8      	pop	{r3, r4, r5, r6, r7, pc}
 8001e62:	4635      	mov	r5, r6
 8001e64:	e7ca      	b.n	8001dfc <HAL_ADC_Init+0x54>
 8001e66:	6aa2      	ldr	r2, [r4, #40]	; 0x28
 8001e68:	f042 0220 	orr.w	r2, r2, #32
 8001e6c:	62a2      	str	r2, [r4, #40]	; 0x28
 8001e6e:	6ae2      	ldr	r2, [r4, #44]	; 0x2c
 8001e70:	f042 0201 	orr.w	r2, r2, #1
 8001e74:	62e2      	str	r2, [r4, #44]	; 0x2c
 8001e76:	e7cb      	b.n	8001e10 <HAL_ADC_Init+0x68>
 8001e78:	6aa3      	ldr	r3, [r4, #40]	; 0x28
 8001e7a:	f023 0312 	bic.w	r3, r3, #18
 8001e7e:	f043 0310 	orr.w	r3, r3, #16
 8001e82:	62a3      	str	r3, [r4, #40]	; 0x28
 8001e84:	6ae3      	ldr	r3, [r4, #44]	; 0x2c
 8001e86:	f043 0301 	orr.w	r3, r3, #1
 8001e8a:	62e3      	str	r3, [r4, #44]	; 0x2c
 8001e8c:	2001      	movs	r0, #1
 8001e8e:	e7e7      	b.n	8001e60 <HAL_ADC_Init+0xb8>
 8001e90:	6aa3      	ldr	r3, [r4, #40]	; 0x28
 8001e92:	f043 0310 	orr.w	r3, r3, #16
 8001e96:	62a3      	str	r3, [r4, #40]	; 0x28
 8001e98:	e7f8      	b.n	8001e8c <HAL_ADC_Init+0xe4>
 8001e9a:	bf00      	nop
 8001e9c:	ffe1f7fd 	.word	0xffe1f7fd
 8001ea0:	ff1f0efe 	.word	0xff1f0efe

08001ea4 <HAL_ADCEx_Calibration_Start>:
 8001ea4:	2300      	movs	r3, #0
 8001ea6:	b573      	push	{r0, r1, r4, r5, r6, lr}
 8001ea8:	9301      	str	r3, [sp, #4]
 8001eaa:	f890 3024 	ldrb.w	r3, [r0, #36]	; 0x24
 8001eae:	4604      	mov	r4, r0
 8001eb0:	2b01      	cmp	r3, #1
 8001eb2:	d062      	beq.n	8001f7a <HAL_ADCEx_Calibration_Start+0xd6>
 8001eb4:	2301      	movs	r3, #1
 8001eb6:	f880 3024 	strb.w	r3, [r0, #36]	; 0x24
 8001eba:	f7ff ff4f 	bl	8001d5c <ADC_ConversionStop_Disable>
 8001ebe:	4620      	mov	r0, r4
 8001ec0:	f7ff fe82 	bl	8001bc8 <ADC_Enable>
 8001ec4:	4605      	mov	r5, r0
 8001ec6:	2800      	cmp	r0, #0
 8001ec8:	d12f      	bne.n	8001f2a <HAL_ADCEx_Calibration_Start+0x86>
 8001eca:	6aa3      	ldr	r3, [r4, #40]	; 0x28
 8001ecc:	2002      	movs	r0, #2
 8001ece:	f423 5388 	bic.w	r3, r3, #4352	; 0x1100
 8001ed2:	f023 0302 	bic.w	r3, r3, #2
 8001ed6:	f043 0302 	orr.w	r3, r3, #2
 8001eda:	62a3      	str	r3, [r4, #40]	; 0x28
 8001edc:	4b28      	ldr	r3, [pc, #160]	; (8001f80 <HAL_ADCEx_Calibration_Start+0xdc>)
 8001ede:	681e      	ldr	r6, [r3, #0]
 8001ee0:	f001 f8ca 	bl	8003078 <HAL_RCCEx_GetPeriphCLKFreq>
 8001ee4:	fbb6 f6f0 	udiv	r6, r6, r0
 8001ee8:	0076      	lsls	r6, r6, #1
 8001eea:	9601      	str	r6, [sp, #4]
 8001eec:	9b01      	ldr	r3, [sp, #4]
 8001eee:	bb03      	cbnz	r3, 8001f32 <HAL_ADCEx_Calibration_Start+0x8e>
 8001ef0:	6822      	ldr	r2, [r4, #0]
 8001ef2:	6893      	ldr	r3, [r2, #8]
 8001ef4:	f043 0308 	orr.w	r3, r3, #8
 8001ef8:	6093      	str	r3, [r2, #8]
 8001efa:	f7ff fd33 	bl	8001964 <HAL_GetTick>
 8001efe:	4606      	mov	r6, r0
 8001f00:	6823      	ldr	r3, [r4, #0]
 8001f02:	689a      	ldr	r2, [r3, #8]
 8001f04:	0711      	lsls	r1, r2, #28
 8001f06:	d418      	bmi.n	8001f3a <HAL_ADCEx_Calibration_Start+0x96>
 8001f08:	689a      	ldr	r2, [r3, #8]
 8001f0a:	f042 0204 	orr.w	r2, r2, #4
 8001f0e:	609a      	str	r2, [r3, #8]
 8001f10:	f7ff fd28 	bl	8001964 <HAL_GetTick>
 8001f14:	4606      	mov	r6, r0
 8001f16:	6823      	ldr	r3, [r4, #0]
 8001f18:	689b      	ldr	r3, [r3, #8]
 8001f1a:	075b      	lsls	r3, r3, #29
 8001f1c:	d423      	bmi.n	8001f66 <HAL_ADCEx_Calibration_Start+0xc2>
 8001f1e:	6aa3      	ldr	r3, [r4, #40]	; 0x28
 8001f20:	f023 0303 	bic.w	r3, r3, #3
 8001f24:	f043 0301 	orr.w	r3, r3, #1
 8001f28:	62a3      	str	r3, [r4, #40]	; 0x28
 8001f2a:	2300      	movs	r3, #0
 8001f2c:	f884 3024 	strb.w	r3, [r4, #36]	; 0x24
 8001f30:	e016      	b.n	8001f60 <HAL_ADCEx_Calibration_Start+0xbc>
 8001f32:	9b01      	ldr	r3, [sp, #4]
 8001f34:	3b01      	subs	r3, #1
 8001f36:	9301      	str	r3, [sp, #4]
 8001f38:	e7d8      	b.n	8001eec <HAL_ADCEx_Calibration_Start+0x48>
 8001f3a:	f7ff fd13 	bl	8001964 <HAL_GetTick>
 8001f3e:	1b80      	subs	r0, r0, r6
 8001f40:	280a      	cmp	r0, #10
 8001f42:	d9dd      	bls.n	8001f00 <HAL_ADCEx_Calibration_Start+0x5c>
 8001f44:	6823      	ldr	r3, [r4, #0]
 8001f46:	689b      	ldr	r3, [r3, #8]
 8001f48:	0718      	lsls	r0, r3, #28
 8001f4a:	d5d9      	bpl.n	8001f00 <HAL_ADCEx_Calibration_Start+0x5c>
 8001f4c:	6aa3      	ldr	r3, [r4, #40]	; 0x28
 8001f4e:	2501      	movs	r5, #1
 8001f50:	f023 0312 	bic.w	r3, r3, #18
 8001f54:	f043 0310 	orr.w	r3, r3, #16
 8001f58:	62a3      	str	r3, [r4, #40]	; 0x28
 8001f5a:	2300      	movs	r3, #0
 8001f5c:	f884 3024 	strb.w	r3, [r4, #36]	; 0x24
 8001f60:	4628      	mov	r0, r5
 8001f62:	b002      	add	sp, #8
 8001f64:	bd70      	pop	{r4, r5, r6, pc}
 8001f66:	f7ff fcfd 	bl	8001964 <HAL_GetTick>
 8001f6a:	1b80      	subs	r0, r0, r6
 8001f6c:	280a      	cmp	r0, #10
 8001f6e:	d9d2      	bls.n	8001f16 <HAL_ADCEx_Calibration_Start+0x72>
 8001f70:	6823      	ldr	r3, [r4, #0]
 8001f72:	689b      	ldr	r3, [r3, #8]
 8001f74:	075a      	lsls	r2, r3, #29
 8001f76:	d5ce      	bpl.n	8001f16 <HAL_ADCEx_Calibration_Start+0x72>
 8001f78:	e7e8      	b.n	8001f4c <HAL_ADCEx_Calibration_Start+0xa8>
 8001f7a:	2502      	movs	r5, #2
 8001f7c:	e7f0      	b.n	8001f60 <HAL_ADCEx_Calibration_Start+0xbc>
 8001f7e:	bf00      	nop
 8001f80:	20000028 	.word	0x20000028

08001f84 <HAL_ADCEx_InjectedConvCpltCallback>:
 8001f84:	4770      	bx	lr
	...

08001f88 <HAL_NVIC_SetPriorityGrouping>:
 8001f88:	4907      	ldr	r1, [pc, #28]	; (8001fa8 <HAL_NVIC_SetPriorityGrouping+0x20>)
 8001f8a:	0203      	lsls	r3, r0, #8
 8001f8c:	68ca      	ldr	r2, [r1, #12]
 8001f8e:	f403 63e0 	and.w	r3, r3, #1792	; 0x700
 8001f92:	f422 62e0 	bic.w	r2, r2, #1792	; 0x700
 8001f96:	0412      	lsls	r2, r2, #16
 8001f98:	0c12      	lsrs	r2, r2, #16
 8001f9a:	4313      	orrs	r3, r2
 8001f9c:	f043 63bf 	orr.w	r3, r3, #100139008	; 0x5f80000
 8001fa0:	f443 3300 	orr.w	r3, r3, #131072	; 0x20000
 8001fa4:	60cb      	str	r3, [r1, #12]
 8001fa6:	4770      	bx	lr
 8001fa8:	e000ed00 	.word	0xe000ed00

08001fac <HAL_NVIC_SetPriority>:
 8001fac:	4b15      	ldr	r3, [pc, #84]	; (8002004 <HAL_NVIC_SetPriority+0x58>)
 8001fae:	b530      	push	{r4, r5, lr}
 8001fb0:	68dc      	ldr	r4, [r3, #12]
 8001fb2:	f3c4 2402 	ubfx	r4, r4, #8, #3
 8001fb6:	f1c4 0307 	rsb	r3, r4, #7
 8001fba:	1d25      	adds	r5, r4, #4
 8001fbc:	2b04      	cmp	r3, #4
 8001fbe:	bf28      	it	cs
 8001fc0:	2304      	movcs	r3, #4
 8001fc2:	2d06      	cmp	r5, #6
 8001fc4:	f04f 35ff 	mov.w	r5, #4294967295
 8001fc8:	bf94      	ite	ls
 8001fca:	2400      	movls	r4, #0
 8001fcc:	3c03      	subhi	r4, #3
 8001fce:	fa05 f303 	lsl.w	r3, r5, r3
 8001fd2:	ea21 0303 	bic.w	r3, r1, r3
 8001fd6:	40a5      	lsls	r5, r4
 8001fd8:	ea22 0205 	bic.w	r2, r2, r5
 8001fdc:	40a3      	lsls	r3, r4
 8001fde:	2800      	cmp	r0, #0
 8001fe0:	ea43 0302 	orr.w	r3, r3, r2
 8001fe4:	bfac      	ite	ge
 8001fe6:	f100 4060 	addge.w	r0, r0, #3758096384	; 0xe0000000
 8001fea:	4a07      	ldrlt	r2, [pc, #28]	; (8002008 <HAL_NVIC_SetPriority+0x5c>)
 8001fec:	ea4f 1303 	mov.w	r3, r3, lsl #4
 8001ff0:	b2db      	uxtb	r3, r3
 8001ff2:	bfab      	itete	ge
 8001ff4:	f500 4061 	addge.w	r0, r0, #57600	; 0xe100
 8001ff8:	f000 000f 	andlt.w	r0, r0, #15
 8001ffc:	f880 3300 	strbge.w	r3, [r0, #768]	; 0x300
 8002000:	5413      	strblt	r3, [r2, r0]
 8002002:	bd30      	pop	{r4, r5, pc}
 8002004:	e000ed00 	.word	0xe000ed00
 8002008:	e000ed14 	.word	0xe000ed14

0800200c <HAL_NVIC_EnableIRQ>:
 800200c:	2800      	cmp	r0, #0
 800200e:	db07      	blt.n	8002020 <HAL_NVIC_EnableIRQ+0x14>
 8002010:	2301      	movs	r3, #1
 8002012:	0941      	lsrs	r1, r0, #5
 8002014:	4a03      	ldr	r2, [pc, #12]	; (8002024 <HAL_NVIC_EnableIRQ+0x18>)
 8002016:	f000 001f 	and.w	r0, r0, #31
 800201a:	4083      	lsls	r3, r0
 800201c:	f842 3021 	str.w	r3, [r2, r1, lsl #2]
 8002020:	4770      	bx	lr
 8002022:	bf00      	nop
 8002024:	e000e100 	.word	0xe000e100

08002028 <HAL_SYSTICK_Config>:
 8002028:	3801      	subs	r0, #1
 800202a:	f1b0 7f80 	cmp.w	r0, #16777216	; 0x1000000
 800202e:	d20b      	bcs.n	8002048 <HAL_SYSTICK_Config+0x20>
 8002030:	f04f 23e0 	mov.w	r3, #3758153728	; 0xe000e000
 8002034:	21f0      	movs	r1, #240	; 0xf0
 8002036:	4a05      	ldr	r2, [pc, #20]	; (800204c <HAL_SYSTICK_Config+0x24>)
 8002038:	6158      	str	r0, [r3, #20]
 800203a:	f882 1023 	strb.w	r1, [r2, #35]	; 0x23
 800203e:	2000      	movs	r0, #0
 8002040:	2207      	movs	r2, #7
 8002042:	6198      	str	r0, [r3, #24]
 8002044:	611a      	str	r2, [r3, #16]
 8002046:	4770      	bx	lr
 8002048:	2001      	movs	r0, #1
 800204a:	4770      	bx	lr
 800204c:	e000ed00 	.word	0xe000ed00

08002050 <HAL_DMA_Init>:
 8002050:	4603      	mov	r3, r0
 8002052:	b510      	push	{r4, lr}
 8002054:	b340      	cbz	r0, 80020a8 <HAL_DMA_Init+0x58>
 8002056:	2114      	movs	r1, #20
 8002058:	6800      	ldr	r0, [r0, #0]
 800205a:	4a14      	ldr	r2, [pc, #80]	; (80020ac <HAL_DMA_Init+0x5c>)
 800205c:	4402      	add	r2, r0
 800205e:	fbb2 f2f1 	udiv	r2, r2, r1
 8002062:	0092      	lsls	r2, r2, #2
 8002064:	641a      	str	r2, [r3, #64]	; 0x40
 8002066:	4a12      	ldr	r2, [pc, #72]	; (80020b0 <HAL_DMA_Init+0x60>)
 8002068:	63da      	str	r2, [r3, #60]	; 0x3c
 800206a:	2202      	movs	r2, #2
 800206c:	f883 2021 	strb.w	r2, [r3, #33]	; 0x21
 8002070:	e9d3 2401 	ldrd	r2, r4, [r3, #4]
 8002074:	4322      	orrs	r2, r4
 8002076:	68dc      	ldr	r4, [r3, #12]
 8002078:	6801      	ldr	r1, [r0, #0]
 800207a:	4322      	orrs	r2, r4
 800207c:	691c      	ldr	r4, [r3, #16]
 800207e:	f421 517f 	bic.w	r1, r1, #16320	; 0x3fc0
 8002082:	4322      	orrs	r2, r4
 8002084:	695c      	ldr	r4, [r3, #20]
 8002086:	f021 0130 	bic.w	r1, r1, #48	; 0x30
 800208a:	4322      	orrs	r2, r4
 800208c:	699c      	ldr	r4, [r3, #24]
 800208e:	4322      	orrs	r2, r4
 8002090:	69dc      	ldr	r4, [r3, #28]
 8002092:	4322      	orrs	r2, r4
 8002094:	430a      	orrs	r2, r1
 8002096:	6002      	str	r2, [r0, #0]
 8002098:	2000      	movs	r0, #0
 800209a:	2201      	movs	r2, #1
 800209c:	6398      	str	r0, [r3, #56]	; 0x38
 800209e:	f883 0020 	strb.w	r0, [r3, #32]
 80020a2:	f883 2021 	strb.w	r2, [r3, #33]	; 0x21
 80020a6:	bd10      	pop	{r4, pc}
 80020a8:	2001      	movs	r0, #1
 80020aa:	e7fc      	b.n	80020a6 <HAL_DMA_Init+0x56>
 80020ac:	bffdfff8 	.word	0xbffdfff8
 80020b0:	40020000 	.word	0x40020000

080020b4 <HAL_DMA_Start_IT>:
 80020b4:	b5f0      	push	{r4, r5, r6, r7, lr}
 80020b6:	4605      	mov	r5, r0
 80020b8:	f890 0020 	ldrb.w	r0, [r0, #32]
 80020bc:	2801      	cmp	r0, #1
 80020be:	d036      	beq.n	800212e <HAL_DMA_Start_IT+0x7a>
 80020c0:	2001      	movs	r0, #1
 80020c2:	f885 0020 	strb.w	r0, [r5, #32]
 80020c6:	f895 0021 	ldrb.w	r0, [r5, #33]	; 0x21
 80020ca:	2400      	movs	r4, #0
 80020cc:	2801      	cmp	r0, #1
 80020ce:	b2c6      	uxtb	r6, r0
 80020d0:	f04f 0002 	mov.w	r0, #2
 80020d4:	d128      	bne.n	8002128 <HAL_DMA_Start_IT+0x74>
 80020d6:	f885 0021 	strb.w	r0, [r5, #33]	; 0x21
 80020da:	63ac      	str	r4, [r5, #56]	; 0x38
 80020dc:	682c      	ldr	r4, [r5, #0]
 80020de:	6820      	ldr	r0, [r4, #0]
 80020e0:	f020 0001 	bic.w	r0, r0, #1
 80020e4:	6020      	str	r0, [r4, #0]
 80020e6:	e9d5 700f 	ldrd	r7, r0, [r5, #60]	; 0x3c
 80020ea:	fa06 f000 	lsl.w	r0, r6, r0
 80020ee:	6078      	str	r0, [r7, #4]
 80020f0:	6063      	str	r3, [r4, #4]
 80020f2:	686b      	ldr	r3, [r5, #4]
 80020f4:	2b10      	cmp	r3, #16
 80020f6:	6aeb      	ldr	r3, [r5, #44]	; 0x2c
 80020f8:	bf0b      	itete	eq
 80020fa:	60a2      	streq	r2, [r4, #8]
 80020fc:	60a1      	strne	r1, [r4, #8]
 80020fe:	60e1      	streq	r1, [r4, #12]
 8002100:	60e2      	strne	r2, [r4, #12]
 8002102:	b14b      	cbz	r3, 8002118 <HAL_DMA_Start_IT+0x64>
 8002104:	6823      	ldr	r3, [r4, #0]
 8002106:	f043 030e 	orr.w	r3, r3, #14
 800210a:	2000      	movs	r0, #0
 800210c:	6023      	str	r3, [r4, #0]
 800210e:	6823      	ldr	r3, [r4, #0]
 8002110:	f043 0301 	orr.w	r3, r3, #1
 8002114:	6023      	str	r3, [r4, #0]
 8002116:	bdf0      	pop	{r4, r5, r6, r7, pc}
 8002118:	6823      	ldr	r3, [r4, #0]
 800211a:	f023 0304 	bic.w	r3, r3, #4
 800211e:	6023      	str	r3, [r4, #0]
 8002120:	6823      	ldr	r3, [r4, #0]
 8002122:	f043 030a 	orr.w	r3, r3, #10
 8002126:	e7f0      	b.n	800210a <HAL_DMA_Start_IT+0x56>
 8002128:	f885 4020 	strb.w	r4, [r5, #32]
 800212c:	e7f3      	b.n	8002116 <HAL_DMA_Start_IT+0x62>
 800212e:	2002      	movs	r0, #2
 8002130:	e7f1      	b.n	8002116 <HAL_DMA_Start_IT+0x62>
	...

08002134 <HAL_DMA_IRQHandler>:
 8002134:	b470      	push	{r4, r5, r6}
 8002136:	2504      	movs	r5, #4
 8002138:	6bc6      	ldr	r6, [r0, #60]	; 0x3c
 800213a:	6c02      	ldr	r2, [r0, #64]	; 0x40
 800213c:	6834      	ldr	r4, [r6, #0]
 800213e:	6803      	ldr	r3, [r0, #0]
 8002140:	4095      	lsls	r5, r2
 8002142:	4225      	tst	r5, r4
 8002144:	6819      	ldr	r1, [r3, #0]
 8002146:	d032      	beq.n	80021ae <HAL_DMA_IRQHandler+0x7a>
 8002148:	074d      	lsls	r5, r1, #29
 800214a:	d530      	bpl.n	80021ae <HAL_DMA_IRQHandler+0x7a>
 800214c:	681a      	ldr	r2, [r3, #0]
 800214e:	0696      	lsls	r6, r2, #26
 8002150:	bf5e      	ittt	pl
 8002152:	681a      	ldrpl	r2, [r3, #0]
 8002154:	f022 0204 	bicpl.w	r2, r2, #4
 8002158:	601a      	strpl	r2, [r3, #0]
 800215a:	4a3e      	ldr	r2, [pc, #248]	; (8002254 <HAL_DMA_IRQHandler+0x120>)
 800215c:	4293      	cmp	r3, r2
 800215e:	d019      	beq.n	8002194 <HAL_DMA_IRQHandler+0x60>
 8002160:	3214      	adds	r2, #20
 8002162:	4293      	cmp	r3, r2
 8002164:	d018      	beq.n	8002198 <HAL_DMA_IRQHandler+0x64>
 8002166:	3214      	adds	r2, #20
 8002168:	4293      	cmp	r3, r2
 800216a:	d017      	beq.n	800219c <HAL_DMA_IRQHandler+0x68>
 800216c:	3214      	adds	r2, #20
 800216e:	4293      	cmp	r3, r2
 8002170:	d017      	beq.n	80021a2 <HAL_DMA_IRQHandler+0x6e>
 8002172:	3214      	adds	r2, #20
 8002174:	4293      	cmp	r3, r2
 8002176:	d017      	beq.n	80021a8 <HAL_DMA_IRQHandler+0x74>
 8002178:	3214      	adds	r2, #20
 800217a:	4293      	cmp	r3, r2
 800217c:	bf0c      	ite	eq
 800217e:	f44f 0380 	moveq.w	r3, #4194304	; 0x400000
 8002182:	f04f 6380 	movne.w	r3, #67108864	; 0x4000000
 8002186:	4a34      	ldr	r2, [pc, #208]	; (8002258 <HAL_DMA_IRQHandler+0x124>)
 8002188:	6053      	str	r3, [r2, #4]
 800218a:	6ac3      	ldr	r3, [r0, #44]	; 0x2c
 800218c:	2b00      	cmp	r3, #0
 800218e:	d05e      	beq.n	800224e <HAL_DMA_IRQHandler+0x11a>
 8002190:	bc70      	pop	{r4, r5, r6}
 8002192:	4718      	bx	r3
 8002194:	2304      	movs	r3, #4
 8002196:	e7f6      	b.n	8002186 <HAL_DMA_IRQHandler+0x52>
 8002198:	2340      	movs	r3, #64	; 0x40
 800219a:	e7f4      	b.n	8002186 <HAL_DMA_IRQHandler+0x52>
 800219c:	f44f 6380 	mov.w	r3, #1024	; 0x400
 80021a0:	e7f1      	b.n	8002186 <HAL_DMA_IRQHandler+0x52>
 80021a2:	f44f 4380 	mov.w	r3, #16384	; 0x4000
 80021a6:	e7ee      	b.n	8002186 <HAL_DMA_IRQHandler+0x52>
 80021a8:	f44f 2380 	mov.w	r3, #262144	; 0x40000
 80021ac:	e7eb      	b.n	8002186 <HAL_DMA_IRQHandler+0x52>
 80021ae:	2502      	movs	r5, #2
 80021b0:	4095      	lsls	r5, r2
 80021b2:	4225      	tst	r5, r4
 80021b4:	d035      	beq.n	8002222 <HAL_DMA_IRQHandler+0xee>
 80021b6:	078d      	lsls	r5, r1, #30
 80021b8:	d533      	bpl.n	8002222 <HAL_DMA_IRQHandler+0xee>
 80021ba:	681a      	ldr	r2, [r3, #0]
 80021bc:	0694      	lsls	r4, r2, #26
 80021be:	d406      	bmi.n	80021ce <HAL_DMA_IRQHandler+0x9a>
 80021c0:	681a      	ldr	r2, [r3, #0]
 80021c2:	f022 020a 	bic.w	r2, r2, #10
 80021c6:	601a      	str	r2, [r3, #0]
 80021c8:	2201      	movs	r2, #1
 80021ca:	f880 2021 	strb.w	r2, [r0, #33]	; 0x21
 80021ce:	4a21      	ldr	r2, [pc, #132]	; (8002254 <HAL_DMA_IRQHandler+0x120>)
 80021d0:	4293      	cmp	r3, r2
 80021d2:	d019      	beq.n	8002208 <HAL_DMA_IRQHandler+0xd4>
 80021d4:	3214      	adds	r2, #20
 80021d6:	4293      	cmp	r3, r2
 80021d8:	d018      	beq.n	800220c <HAL_DMA_IRQHandler+0xd8>
 80021da:	3214      	adds	r2, #20
 80021dc:	4293      	cmp	r3, r2
 80021de:	d017      	beq.n	8002210 <HAL_DMA_IRQHandler+0xdc>
 80021e0:	3214      	adds	r2, #20
 80021e2:	4293      	cmp	r3, r2
 80021e4:	d017      	beq.n	8002216 <HAL_DMA_IRQHandler+0xe2>
 80021e6:	3214      	adds	r2, #20
 80021e8:	4293      	cmp	r3, r2
 80021ea:	d017      	beq.n	800221c <HAL_DMA_IRQHandler+0xe8>
 80021ec:	3214      	adds	r2, #20
 80021ee:	4293      	cmp	r3, r2
 80021f0:	bf0c      	ite	eq
 80021f2:	f44f 1300 	moveq.w	r3, #2097152	; 0x200000
 80021f6:	f04f 7300 	movne.w	r3, #33554432	; 0x2000000
 80021fa:	4a17      	ldr	r2, [pc, #92]	; (8002258 <HAL_DMA_IRQHandler+0x124>)
 80021fc:	6053      	str	r3, [r2, #4]
 80021fe:	2300      	movs	r3, #0
 8002200:	f880 3020 	strb.w	r3, [r0, #32]
 8002204:	6a83      	ldr	r3, [r0, #40]	; 0x28
 8002206:	e7c1      	b.n	800218c <HAL_DMA_IRQHandler+0x58>
 8002208:	2302      	movs	r3, #2
 800220a:	e7f6      	b.n	80021fa <HAL_DMA_IRQHandler+0xc6>
 800220c:	2320      	movs	r3, #32
 800220e:	e7f4      	b.n	80021fa <HAL_DMA_IRQHandler+0xc6>
 8002210:	f44f 7300 	mov.w	r3, #512	; 0x200
 8002214:	e7f1      	b.n	80021fa <HAL_DMA_IRQHandler+0xc6>
 8002216:	f44f 5300 	mov.w	r3, #8192	; 0x2000
 800221a:	e7ee      	b.n	80021fa <HAL_DMA_IRQHandler+0xc6>
 800221c:	f44f 3300 	mov.w	r3, #131072	; 0x20000
 8002220:	e7eb      	b.n	80021fa <HAL_DMA_IRQHandler+0xc6>
 8002222:	2508      	movs	r5, #8
 8002224:	4095      	lsls	r5, r2
 8002226:	4225      	tst	r5, r4
 8002228:	d011      	beq.n	800224e <HAL_DMA_IRQHandler+0x11a>
 800222a:	0709      	lsls	r1, r1, #28
 800222c:	d50f      	bpl.n	800224e <HAL_DMA_IRQHandler+0x11a>
 800222e:	6819      	ldr	r1, [r3, #0]
 8002230:	f021 010e 	bic.w	r1, r1, #14
 8002234:	6019      	str	r1, [r3, #0]
 8002236:	2301      	movs	r3, #1
 8002238:	fa03 f202 	lsl.w	r2, r3, r2
 800223c:	6072      	str	r2, [r6, #4]
 800223e:	6383      	str	r3, [r0, #56]	; 0x38
 8002240:	f880 3021 	strb.w	r3, [r0, #33]	; 0x21
 8002244:	2300      	movs	r3, #0
 8002246:	f880 3020 	strb.w	r3, [r0, #32]
 800224a:	6b03      	ldr	r3, [r0, #48]	; 0x30
 800224c:	e79e      	b.n	800218c <HAL_DMA_IRQHandler+0x58>
 800224e:	bc70      	pop	{r4, r5, r6}
 8002250:	4770      	bx	lr
 8002252:	bf00      	nop
 8002254:	40020008 	.word	0x40020008
 8002258:	40020000 	.word	0x40020000

0800225c <HAL_GPIO_Init>:
 800225c:	e92d 4ff7 	stmdb	sp!, {r0, r1, r2, r4, r5, r6, r7, r8, r9, sl, fp, lr}
 8002260:	2200      	movs	r2, #0
 8002262:	4616      	mov	r6, r2
 8002264:	4f61      	ldr	r7, [pc, #388]	; (80023ec <HAL_GPIO_Init+0x190>)
 8002266:	4b62      	ldr	r3, [pc, #392]	; (80023f0 <HAL_GPIO_Init+0x194>)
 8002268:	f8df c188 	ldr.w	ip, [pc, #392]	; 80023f4 <HAL_GPIO_Init+0x198>
 800226c:	f8df e188 	ldr.w	lr, [pc, #392]	; 80023f8 <HAL_GPIO_Init+0x19c>
 8002270:	680d      	ldr	r5, [r1, #0]
 8002272:	fa35 f406 	lsrs.w	r4, r5, r6
 8002276:	d102      	bne.n	800227e <HAL_GPIO_Init+0x22>
 8002278:	b003      	add	sp, #12
 800227a:	e8bd 8ff0 	ldmia.w	sp!, {r4, r5, r6, r7, r8, r9, sl, fp, pc}
 800227e:	f04f 0801 	mov.w	r8, #1
 8002282:	fa08 f806 	lsl.w	r8, r8, r6
 8002286:	ea05 0408 	and.w	r4, r5, r8
 800228a:	ea38 0505 	bics.w	r5, r8, r5
 800228e:	d176      	bne.n	800237e <HAL_GPIO_Init+0x122>
 8002290:	684d      	ldr	r5, [r1, #4]
 8002292:	2d03      	cmp	r5, #3
 8002294:	d807      	bhi.n	80022a6 <HAL_GPIO_Init+0x4a>
 8002296:	3d01      	subs	r5, #1
 8002298:	2d02      	cmp	r5, #2
 800229a:	f200 8081 	bhi.w	80023a0 <HAL_GPIO_Init+0x144>
 800229e:	e8df f005 	tbb	[pc, r5]
 80022a2:	9691      	.short	0x9691
 80022a4:	9c          	.byte	0x9c
 80022a5:	00          	.byte	0x00
 80022a6:	2d12      	cmp	r5, #18
 80022a8:	f000 8094 	beq.w	80023d4 <HAL_GPIO_Init+0x178>
 80022ac:	d869      	bhi.n	8002382 <HAL_GPIO_Init+0x126>
 80022ae:	2d11      	cmp	r5, #17
 80022b0:	f000 808a 	beq.w	80023c8 <HAL_GPIO_Init+0x16c>
 80022b4:	2cff      	cmp	r4, #255	; 0xff
 80022b6:	bf98      	it	ls
 80022b8:	4682      	movls	sl, r0
 80022ba:	f04f 090f 	mov.w	r9, #15
 80022be:	bf88      	it	hi
 80022c0:	f100 0a04 	addhi.w	sl, r0, #4
 80022c4:	ea4f 0586 	mov.w	r5, r6, lsl #2
 80022c8:	f8da 8000 	ldr.w	r8, [sl]
 80022cc:	bf88      	it	hi
 80022ce:	3d20      	subhi	r5, #32
 80022d0:	fa09 fb05 	lsl.w	fp, r9, r5
 80022d4:	ea28 080b 	bic.w	r8, r8, fp
 80022d8:	fa02 f505 	lsl.w	r5, r2, r5
 80022dc:	ea48 0505 	orr.w	r5, r8, r5
 80022e0:	f8ca 5000 	str.w	r5, [sl]
 80022e4:	f8d1 a004 	ldr.w	sl, [r1, #4]
 80022e8:	f01a 5f80 	tst.w	sl, #268435456	; 0x10000000
 80022ec:	d047      	beq.n	800237e <HAL_GPIO_Init+0x122>
 80022ee:	69bd      	ldr	r5, [r7, #24]
 80022f0:	f026 0803 	bic.w	r8, r6, #3
 80022f4:	f045 0501 	orr.w	r5, r5, #1
 80022f8:	61bd      	str	r5, [r7, #24]
 80022fa:	69bd      	ldr	r5, [r7, #24]
 80022fc:	f108 4880 	add.w	r8, r8, #1073741824	; 0x40000000
 8002300:	f005 0501 	and.w	r5, r5, #1
 8002304:	9501      	str	r5, [sp, #4]
 8002306:	f508 3880 	add.w	r8, r8, #65536	; 0x10000
 800230a:	f006 0b03 	and.w	fp, r6, #3
 800230e:	9d01      	ldr	r5, [sp, #4]
 8002310:	ea4f 0b8b 	mov.w	fp, fp, lsl #2
 8002314:	f8d8 5008 	ldr.w	r5, [r8, #8]
 8002318:	fa09 f90b 	lsl.w	r9, r9, fp
 800231c:	ea25 0909 	bic.w	r9, r5, r9
 8002320:	4d36      	ldr	r5, [pc, #216]	; (80023fc <HAL_GPIO_Init+0x1a0>)
 8002322:	42a8      	cmp	r0, r5
 8002324:	d05d      	beq.n	80023e2 <HAL_GPIO_Init+0x186>
 8002326:	f505 6580 	add.w	r5, r5, #1024	; 0x400
 800232a:	42a8      	cmp	r0, r5
 800232c:	d05b      	beq.n	80023e6 <HAL_GPIO_Init+0x18a>
 800232e:	f505 6580 	add.w	r5, r5, #1024	; 0x400
 8002332:	42a8      	cmp	r0, r5
 8002334:	bf0c      	ite	eq
 8002336:	2502      	moveq	r5, #2
 8002338:	2503      	movne	r5, #3
 800233a:	fa05 f50b 	lsl.w	r5, r5, fp
 800233e:	ea45 0509 	orr.w	r5, r5, r9
 8002342:	f8c8 5008 	str.w	r5, [r8, #8]
 8002346:	689d      	ldr	r5, [r3, #8]
 8002348:	f41a 1f80 	tst.w	sl, #1048576	; 0x100000
 800234c:	bf14      	ite	ne
 800234e:	4325      	orrne	r5, r4
 8002350:	43a5      	biceq	r5, r4
 8002352:	609d      	str	r5, [r3, #8]
 8002354:	68dd      	ldr	r5, [r3, #12]
 8002356:	f41a 1f00 	tst.w	sl, #2097152	; 0x200000
 800235a:	bf14      	ite	ne
 800235c:	4325      	orrne	r5, r4
 800235e:	43a5      	biceq	r5, r4
 8002360:	60dd      	str	r5, [r3, #12]
 8002362:	685d      	ldr	r5, [r3, #4]
 8002364:	f41a 3f00 	tst.w	sl, #131072	; 0x20000
 8002368:	bf14      	ite	ne
 800236a:	4325      	orrne	r5, r4
 800236c:	43a5      	biceq	r5, r4
 800236e:	605d      	str	r5, [r3, #4]
 8002370:	681d      	ldr	r5, [r3, #0]
 8002372:	f41a 3f80 	tst.w	sl, #65536	; 0x10000
 8002376:	bf14      	ite	ne
 8002378:	4325      	orrne	r5, r4
 800237a:	43a5      	biceq	r5, r4
 800237c:	601d      	str	r5, [r3, #0]
 800237e:	3601      	adds	r6, #1
 8002380:	e776      	b.n	8002270 <HAL_GPIO_Init+0x14>
 8002382:	f8df 907c 	ldr.w	r9, [pc, #124]	; 8002400 <HAL_GPIO_Init+0x1a4>
 8002386:	454d      	cmp	r5, r9
 8002388:	d00a      	beq.n	80023a0 <HAL_GPIO_Init+0x144>
 800238a:	d815      	bhi.n	80023b8 <HAL_GPIO_Init+0x15c>
 800238c:	4575      	cmp	r5, lr
 800238e:	d007      	beq.n	80023a0 <HAL_GPIO_Init+0x144>
 8002390:	f5a9 3980 	sub.w	r9, r9, #65536	; 0x10000
 8002394:	454d      	cmp	r5, r9
 8002396:	d003      	beq.n	80023a0 <HAL_GPIO_Init+0x144>
 8002398:	f5a9 1980 	sub.w	r9, r9, #1048576	; 0x100000
 800239c:	454d      	cmp	r5, r9
 800239e:	d189      	bne.n	80022b4 <HAL_GPIO_Init+0x58>
 80023a0:	688a      	ldr	r2, [r1, #8]
 80023a2:	b1e2      	cbz	r2, 80023de <HAL_GPIO_Init+0x182>
 80023a4:	2a01      	cmp	r2, #1
 80023a6:	bf08      	it	eq
 80023a8:	f8c0 8010 	streq.w	r8, [r0, #16]
 80023ac:	f04f 0208 	mov.w	r2, #8
 80023b0:	bf18      	it	ne
 80023b2:	f8c0 8014 	strne.w	r8, [r0, #20]
 80023b6:	e77d      	b.n	80022b4 <HAL_GPIO_Init+0x58>
 80023b8:	f8df 9048 	ldr.w	r9, [pc, #72]	; 8002404 <HAL_GPIO_Init+0x1a8>
 80023bc:	454d      	cmp	r5, r9
 80023be:	d0ef      	beq.n	80023a0 <HAL_GPIO_Init+0x144>
 80023c0:	4565      	cmp	r5, ip
 80023c2:	e7ec      	b.n	800239e <HAL_GPIO_Init+0x142>
 80023c4:	68ca      	ldr	r2, [r1, #12]
 80023c6:	e775      	b.n	80022b4 <HAL_GPIO_Init+0x58>
 80023c8:	68ca      	ldr	r2, [r1, #12]
 80023ca:	3204      	adds	r2, #4
 80023cc:	e772      	b.n	80022b4 <HAL_GPIO_Init+0x58>
 80023ce:	68ca      	ldr	r2, [r1, #12]
 80023d0:	3208      	adds	r2, #8
 80023d2:	e76f      	b.n	80022b4 <HAL_GPIO_Init+0x58>
 80023d4:	68ca      	ldr	r2, [r1, #12]
 80023d6:	320c      	adds	r2, #12
 80023d8:	e76c      	b.n	80022b4 <HAL_GPIO_Init+0x58>
 80023da:	2200      	movs	r2, #0
 80023dc:	e76a      	b.n	80022b4 <HAL_GPIO_Init+0x58>
 80023de:	2204      	movs	r2, #4
 80023e0:	e768      	b.n	80022b4 <HAL_GPIO_Init+0x58>
 80023e2:	2500      	movs	r5, #0
 80023e4:	e7a9      	b.n	800233a <HAL_GPIO_Init+0xde>
 80023e6:	2501      	movs	r5, #1
 80023e8:	e7a7      	b.n	800233a <HAL_GPIO_Init+0xde>
 80023ea:	bf00      	nop
 80023ec:	40021000 	.word	0x40021000
 80023f0:	40010400 	.word	0x40010400
 80023f4:	10320000 	.word	0x10320000
 80023f8:	10120000 	.word	0x10120000
 80023fc:	40010800 	.word	0x40010800
 8002400:	10220000 	.word	0x10220000
 8002404:	10310000 	.word	0x10310000

08002408 <HAL_GPIO_ReadPin>:
 8002408:	6883      	ldr	r3, [r0, #8]
 800240a:	4219      	tst	r1, r3
 800240c:	bf14      	ite	ne
 800240e:	2001      	movne	r0, #1
 8002410:	2000      	moveq	r0, #0
 8002412:	4770      	bx	lr

08002414 <HAL_GPIO_WritePin>:
 8002414:	b10a      	cbz	r2, 800241a <HAL_GPIO_WritePin+0x6>
 8002416:	6101      	str	r1, [r0, #16]
 8002418:	4770      	bx	lr
 800241a:	0409      	lsls	r1, r1, #16
 800241c:	e7fb      	b.n	8002416 <HAL_GPIO_WritePin+0x2>

0800241e <HAL_GPIO_TogglePin>:
 800241e:	68c3      	ldr	r3, [r0, #12]
 8002420:	ea01 0203 	and.w	r2, r1, r3
 8002424:	ea21 0103 	bic.w	r1, r1, r3
 8002428:	ea41 4102 	orr.w	r1, r1, r2, lsl #16
 800242c:	6101      	str	r1, [r0, #16]
 800242e:	4770      	bx	lr

08002430 <HAL_GPIO_EXTI_IRQHandler>:
 8002430:	4a04      	ldr	r2, [pc, #16]	; (8002444 <HAL_GPIO_EXTI_IRQHandler+0x14>)
 8002432:	b508      	push	{r3, lr}
 8002434:	6951      	ldr	r1, [r2, #20]
 8002436:	4201      	tst	r1, r0
 8002438:	d002      	beq.n	8002440 <HAL_GPIO_EXTI_IRQHandler+0x10>
 800243a:	6150      	str	r0, [r2, #20]
 800243c:	f7fe ff58 	bl	80012f0 <HAL_GPIO_EXTI_Callback>
 8002440:	bd08      	pop	{r3, pc}
 8002442:	bf00      	nop
 8002444:	40010400 	.word	0x40010400

08002448 <I2C_IsAcknowledgeFailed>:
 8002448:	6801      	ldr	r1, [r0, #0]
 800244a:	2200      	movs	r2, #0
 800244c:	694b      	ldr	r3, [r1, #20]
 800244e:	f413 6380 	ands.w	r3, r3, #1024	; 0x400
 8002452:	d010      	beq.n	8002476 <I2C_IsAcknowledgeFailed+0x2e>
 8002454:	f46f 6380 	mvn.w	r3, #1024	; 0x400
 8002458:	614b      	str	r3, [r1, #20]
 800245a:	2320      	movs	r3, #32
 800245c:	6302      	str	r2, [r0, #48]	; 0x30
 800245e:	f880 303d 	strb.w	r3, [r0, #61]	; 0x3d
 8002462:	f880 203e 	strb.w	r2, [r0, #62]	; 0x3e
 8002466:	6c03      	ldr	r3, [r0, #64]	; 0x40
 8002468:	f880 203c 	strb.w	r2, [r0, #60]	; 0x3c
 800246c:	f043 0304 	orr.w	r3, r3, #4
 8002470:	6403      	str	r3, [r0, #64]	; 0x40
 8002472:	2001      	movs	r0, #1
 8002474:	4770      	bx	lr
 8002476:	4618      	mov	r0, r3
 8002478:	4770      	bx	lr

0800247a <I2C_WaitOnFlagUntilTimeout>:
 800247a:	e92d 46f8 	stmdb	sp!, {r3, r4, r5, r6, r7, r9, sl, lr}
 800247e:	4606      	mov	r6, r0
 8002480:	460f      	mov	r7, r1
 8002482:	4691      	mov	r9, r2
 8002484:	461d      	mov	r5, r3
 8002486:	ea4f 4a11 	mov.w	sl, r1, lsr #16
 800248a:	6833      	ldr	r3, [r6, #0]
 800248c:	f1ba 0f01 	cmp.w	sl, #1
 8002490:	bf0c      	ite	eq
 8002492:	695c      	ldreq	r4, [r3, #20]
 8002494:	699c      	ldrne	r4, [r3, #24]
 8002496:	ea27 0404 	bic.w	r4, r7, r4
 800249a:	b2a4      	uxth	r4, r4
 800249c:	fab4 f484 	clz	r4, r4
 80024a0:	0964      	lsrs	r4, r4, #5
 80024a2:	45a1      	cmp	r9, r4
 80024a4:	d001      	beq.n	80024aa <I2C_WaitOnFlagUntilTimeout+0x30>
 80024a6:	2000      	movs	r0, #0
 80024a8:	e025      	b.n	80024f6 <I2C_WaitOnFlagUntilTimeout+0x7c>
 80024aa:	1c6a      	adds	r2, r5, #1
 80024ac:	d0ee      	beq.n	800248c <I2C_WaitOnFlagUntilTimeout+0x12>
 80024ae:	f7ff fa59 	bl	8001964 <HAL_GetTick>
 80024b2:	9b08      	ldr	r3, [sp, #32]
 80024b4:	1ac0      	subs	r0, r0, r3
 80024b6:	42a8      	cmp	r0, r5
 80024b8:	d801      	bhi.n	80024be <I2C_WaitOnFlagUntilTimeout+0x44>
 80024ba:	2d00      	cmp	r5, #0
 80024bc:	d1e5      	bne.n	800248a <I2C_WaitOnFlagUntilTimeout+0x10>
 80024be:	6833      	ldr	r3, [r6, #0]
 80024c0:	f1ba 0f01 	cmp.w	sl, #1
 80024c4:	bf0c      	ite	eq
 80024c6:	695b      	ldreq	r3, [r3, #20]
 80024c8:	699b      	ldrne	r3, [r3, #24]
 80024ca:	ea27 0303 	bic.w	r3, r7, r3
 80024ce:	b29b      	uxth	r3, r3
 80024d0:	fab3 f383 	clz	r3, r3
 80024d4:	095b      	lsrs	r3, r3, #5
 80024d6:	4599      	cmp	r9, r3
 80024d8:	d1d7      	bne.n	800248a <I2C_WaitOnFlagUntilTimeout+0x10>
 80024da:	2300      	movs	r3, #0
 80024dc:	2220      	movs	r2, #32
 80024de:	2001      	movs	r0, #1
 80024e0:	6333      	str	r3, [r6, #48]	; 0x30
 80024e2:	f886 203d 	strb.w	r2, [r6, #61]	; 0x3d
 80024e6:	f886 303e 	strb.w	r3, [r6, #62]	; 0x3e
 80024ea:	6c32      	ldr	r2, [r6, #64]	; 0x40
 80024ec:	f886 303c 	strb.w	r3, [r6, #60]	; 0x3c
 80024f0:	f042 0220 	orr.w	r2, r2, #32
 80024f4:	6432      	str	r2, [r6, #64]	; 0x40
 80024f6:	e8bd 86f8 	ldmia.w	sp!, {r3, r4, r5, r6, r7, r9, sl, pc}

080024fa <I2C_WaitOnMasterAddressFlagUntilTimeout>:
 80024fa:	e92d 41f0 	stmdb	sp!, {r4, r5, r6, r7, r8, lr}
 80024fe:	4604      	mov	r4, r0
 8002500:	460f      	mov	r7, r1
 8002502:	4616      	mov	r6, r2
 8002504:	4698      	mov	r8, r3
 8002506:	6825      	ldr	r5, [r4, #0]
 8002508:	6968      	ldr	r0, [r5, #20]
 800250a:	ea27 0000 	bic.w	r0, r7, r0
 800250e:	b280      	uxth	r0, r0
 8002510:	b1b8      	cbz	r0, 8002542 <I2C_WaitOnMasterAddressFlagUntilTimeout+0x48>
 8002512:	696b      	ldr	r3, [r5, #20]
 8002514:	055a      	lsls	r2, r3, #21
 8002516:	d516      	bpl.n	8002546 <I2C_WaitOnMasterAddressFlagUntilTimeout+0x4c>
 8002518:	682b      	ldr	r3, [r5, #0]
 800251a:	2220      	movs	r2, #32
 800251c:	f443 7300 	orr.w	r3, r3, #512	; 0x200
 8002520:	602b      	str	r3, [r5, #0]
 8002522:	f46f 6380 	mvn.w	r3, #1024	; 0x400
 8002526:	616b      	str	r3, [r5, #20]
 8002528:	2300      	movs	r3, #0
 800252a:	6323      	str	r3, [r4, #48]	; 0x30
 800252c:	f884 203d 	strb.w	r2, [r4, #61]	; 0x3d
 8002530:	f884 303e 	strb.w	r3, [r4, #62]	; 0x3e
 8002534:	6c22      	ldr	r2, [r4, #64]	; 0x40
 8002536:	f042 0204 	orr.w	r2, r2, #4
 800253a:	2001      	movs	r0, #1
 800253c:	6422      	str	r2, [r4, #64]	; 0x40
 800253e:	f884 303c 	strb.w	r3, [r4, #60]	; 0x3c
 8002542:	e8bd 81f0 	ldmia.w	sp!, {r4, r5, r6, r7, r8, pc}
 8002546:	1c73      	adds	r3, r6, #1
 8002548:	d0de      	beq.n	8002508 <I2C_WaitOnMasterAddressFlagUntilTimeout+0xe>
 800254a:	f7ff fa0b 	bl	8001964 <HAL_GetTick>
 800254e:	eba0 0008 	sub.w	r0, r0, r8
 8002552:	42b0      	cmp	r0, r6
 8002554:	d801      	bhi.n	800255a <I2C_WaitOnMasterAddressFlagUntilTimeout+0x60>
 8002556:	2e00      	cmp	r6, #0
 8002558:	d1d5      	bne.n	8002506 <I2C_WaitOnMasterAddressFlagUntilTimeout+0xc>
 800255a:	6823      	ldr	r3, [r4, #0]
 800255c:	695a      	ldr	r2, [r3, #20]
 800255e:	ea27 0202 	bic.w	r2, r7, r2
 8002562:	b292      	uxth	r2, r2
 8002564:	2a00      	cmp	r2, #0
 8002566:	d0ce      	beq.n	8002506 <I2C_WaitOnMasterAddressFlagUntilTimeout+0xc>
 8002568:	2300      	movs	r3, #0
 800256a:	2220      	movs	r2, #32
 800256c:	6323      	str	r3, [r4, #48]	; 0x30
 800256e:	f884 203d 	strb.w	r2, [r4, #61]	; 0x3d
 8002572:	f884 303e 	strb.w	r3, [r4, #62]	; 0x3e
 8002576:	6c22      	ldr	r2, [r4, #64]	; 0x40
 8002578:	f042 0220 	orr.w	r2, r2, #32
 800257c:	e7dd      	b.n	800253a <I2C_WaitOnMasterAddressFlagUntilTimeout+0x40>

0800257e <I2C_WaitOnTXEFlagUntilTimeout>:
 800257e:	b570      	push	{r4, r5, r6, lr}
 8002580:	4604      	mov	r4, r0
 8002582:	460d      	mov	r5, r1
 8002584:	4616      	mov	r6, r2
 8002586:	6823      	ldr	r3, [r4, #0]
 8002588:	695b      	ldr	r3, [r3, #20]
 800258a:	061b      	lsls	r3, r3, #24
 800258c:	d501      	bpl.n	8002592 <I2C_WaitOnTXEFlagUntilTimeout+0x14>
 800258e:	2000      	movs	r0, #0
 8002590:	bd70      	pop	{r4, r5, r6, pc}
 8002592:	4620      	mov	r0, r4
 8002594:	f7ff ff58 	bl	8002448 <I2C_IsAcknowledgeFailed>
 8002598:	b9c8      	cbnz	r0, 80025ce <I2C_WaitOnTXEFlagUntilTimeout+0x50>
 800259a:	1c6a      	adds	r2, r5, #1
 800259c:	d0f3      	beq.n	8002586 <I2C_WaitOnTXEFlagUntilTimeout+0x8>
 800259e:	f7ff f9e1 	bl	8001964 <HAL_GetTick>
 80025a2:	1b80      	subs	r0, r0, r6
 80025a4:	42a8      	cmp	r0, r5
 80025a6:	d801      	bhi.n	80025ac <I2C_WaitOnTXEFlagUntilTimeout+0x2e>
 80025a8:	2d00      	cmp	r5, #0
 80025aa:	d1ec      	bne.n	8002586 <I2C_WaitOnTXEFlagUntilTimeout+0x8>
 80025ac:	6823      	ldr	r3, [r4, #0]
 80025ae:	695b      	ldr	r3, [r3, #20]
 80025b0:	f013 0380 	ands.w	r3, r3, #128	; 0x80
 80025b4:	d1e7      	bne.n	8002586 <I2C_WaitOnTXEFlagUntilTimeout+0x8>
 80025b6:	2220      	movs	r2, #32
 80025b8:	6323      	str	r3, [r4, #48]	; 0x30
 80025ba:	f884 203d 	strb.w	r2, [r4, #61]	; 0x3d
 80025be:	f884 303e 	strb.w	r3, [r4, #62]	; 0x3e
 80025c2:	6c22      	ldr	r2, [r4, #64]	; 0x40
 80025c4:	f884 303c 	strb.w	r3, [r4, #60]	; 0x3c
 80025c8:	f042 0220 	orr.w	r2, r2, #32
 80025cc:	6422      	str	r2, [r4, #64]	; 0x40
 80025ce:	2001      	movs	r0, #1
 80025d0:	e7de      	b.n	8002590 <I2C_WaitOnTXEFlagUntilTimeout+0x12>

080025d2 <I2C_WaitOnBTFFlagUntilTimeout>:
 80025d2:	b570      	push	{r4, r5, r6, lr}
 80025d4:	4604      	mov	r4, r0
 80025d6:	460d      	mov	r5, r1
 80025d8:	4616      	mov	r6, r2
 80025da:	6823      	ldr	r3, [r4, #0]
 80025dc:	695b      	ldr	r3, [r3, #20]
 80025de:	075b      	lsls	r3, r3, #29
 80025e0:	d501      	bpl.n	80025e6 <I2C_WaitOnBTFFlagUntilTimeout+0x14>
 80025e2:	2000      	movs	r0, #0
 80025e4:	bd70      	pop	{r4, r5, r6, pc}
 80025e6:	4620      	mov	r0, r4
 80025e8:	f7ff ff2e 	bl	8002448 <I2C_IsAcknowledgeFailed>
 80025ec:	b9c8      	cbnz	r0, 8002622 <I2C_WaitOnBTFFlagUntilTimeout+0x50>
 80025ee:	1c6a      	adds	r2, r5, #1
 80025f0:	d0f3      	beq.n	80025da <I2C_WaitOnBTFFlagUntilTimeout+0x8>
 80025f2:	f7ff f9b7 	bl	8001964 <HAL_GetTick>
 80025f6:	1b80      	subs	r0, r0, r6
 80025f8:	42a8      	cmp	r0, r5
 80025fa:	d801      	bhi.n	8002600 <I2C_WaitOnBTFFlagUntilTimeout+0x2e>
 80025fc:	2d00      	cmp	r5, #0
 80025fe:	d1ec      	bne.n	80025da <I2C_WaitOnBTFFlagUntilTimeout+0x8>
 8002600:	6823      	ldr	r3, [r4, #0]
 8002602:	695b      	ldr	r3, [r3, #20]
 8002604:	f013 0304 	ands.w	r3, r3, #4
 8002608:	d1e7      	bne.n	80025da <I2C_WaitOnBTFFlagUntilTimeout+0x8>
 800260a:	2220      	movs	r2, #32
 800260c:	6323      	str	r3, [r4, #48]	; 0x30
 800260e:	f884 203d 	strb.w	r2, [r4, #61]	; 0x3d
 8002612:	f884 303e 	strb.w	r3, [r4, #62]	; 0x3e
 8002616:	6c22      	ldr	r2, [r4, #64]	; 0x40
 8002618:	f884 303c 	strb.w	r3, [r4, #60]	; 0x3c
 800261c:	f042 0220 	orr.w	r2, r2, #32
 8002620:	6422      	str	r2, [r4, #64]	; 0x40
 8002622:	2001      	movs	r0, #1
 8002624:	e7de      	b.n	80025e4 <I2C_WaitOnBTFFlagUntilTimeout+0x12>
	...

08002628 <HAL_I2C_Init>:
 8002628:	b570      	push	{r4, r5, r6, lr}
 800262a:	4604      	mov	r4, r0
 800262c:	b908      	cbnz	r0, 8002632 <HAL_I2C_Init+0xa>
 800262e:	2001      	movs	r0, #1
 8002630:	bd70      	pop	{r4, r5, r6, pc}
 8002632:	f890 303d 	ldrb.w	r3, [r0, #61]	; 0x3d
 8002636:	f003 02ff 	and.w	r2, r3, #255	; 0xff
 800263a:	b91b      	cbnz	r3, 8002644 <HAL_I2C_Init+0x1c>
 800263c:	f880 203c 	strb.w	r2, [r0, #60]	; 0x3c
 8002640:	f7ff f834 	bl	80016ac <HAL_I2C_MspInit>
 8002644:	2324      	movs	r3, #36	; 0x24
 8002646:	f884 303d 	strb.w	r3, [r4, #61]	; 0x3d
 800264a:	6823      	ldr	r3, [r4, #0]
 800264c:	681a      	ldr	r2, [r3, #0]
 800264e:	f022 0201 	bic.w	r2, r2, #1
 8002652:	601a      	str	r2, [r3, #0]
 8002654:	681a      	ldr	r2, [r3, #0]
 8002656:	f442 4200 	orr.w	r2, r2, #32768	; 0x8000
 800265a:	601a      	str	r2, [r3, #0]
 800265c:	681a      	ldr	r2, [r3, #0]
 800265e:	f422 4200 	bic.w	r2, r2, #32768	; 0x8000
 8002662:	601a      	str	r2, [r3, #0]
 8002664:	f000 fc6e 	bl	8002f44 <HAL_RCC_GetPCLK1Freq>
 8002668:	4b3f      	ldr	r3, [pc, #252]	; (8002768 <HAL_I2C_Init+0x140>)
 800266a:	6865      	ldr	r5, [r4, #4]
 800266c:	429d      	cmp	r5, r3
 800266e:	bf94      	ite	ls
 8002670:	4b3e      	ldrls	r3, [pc, #248]	; (800276c <HAL_I2C_Init+0x144>)
 8002672:	4b3f      	ldrhi	r3, [pc, #252]	; (8002770 <HAL_I2C_Init+0x148>)
 8002674:	4298      	cmp	r0, r3
 8002676:	bf8c      	ite	hi
 8002678:	2300      	movhi	r3, #0
 800267a:	2301      	movls	r3, #1
 800267c:	2b00      	cmp	r3, #0
 800267e:	d1d6      	bne.n	800262e <HAL_I2C_Init+0x6>
 8002680:	4e39      	ldr	r6, [pc, #228]	; (8002768 <HAL_I2C_Init+0x140>)
 8002682:	4b3c      	ldr	r3, [pc, #240]	; (8002774 <HAL_I2C_Init+0x14c>)
 8002684:	42b5      	cmp	r5, r6
 8002686:	fbb0 f3f3 	udiv	r3, r0, r3
 800268a:	bf88      	it	hi
 800268c:	f44f 7696 	movhi.w	r6, #300	; 0x12c
 8002690:	6822      	ldr	r2, [r4, #0]
 8002692:	6851      	ldr	r1, [r2, #4]
 8002694:	f021 013f 	bic.w	r1, r1, #63	; 0x3f
 8002698:	ea41 0103 	orr.w	r1, r1, r3
 800269c:	bf82      	ittt	hi
 800269e:	4373      	mulhi	r3, r6
 80026a0:	f44f 767a 	movhi.w	r6, #1000	; 0x3e8
 80026a4:	fbb3 f3f6 	udivhi	r3, r3, r6
 80026a8:	6051      	str	r1, [r2, #4]
 80026aa:	6a11      	ldr	r1, [r2, #32]
 80026ac:	3301      	adds	r3, #1
 80026ae:	f021 013f 	bic.w	r1, r1, #63	; 0x3f
 80026b2:	430b      	orrs	r3, r1
 80026b4:	6213      	str	r3, [r2, #32]
 80026b6:	69d1      	ldr	r1, [r2, #28]
 80026b8:	1e43      	subs	r3, r0, #1
 80026ba:	482b      	ldr	r0, [pc, #172]	; (8002768 <HAL_I2C_Init+0x140>)
 80026bc:	f421 414f 	bic.w	r1, r1, #52992	; 0xcf00
 80026c0:	4285      	cmp	r5, r0
 80026c2:	f021 01ff 	bic.w	r1, r1, #255	; 0xff
 80026c6:	d832      	bhi.n	800272e <HAL_I2C_Init+0x106>
 80026c8:	006d      	lsls	r5, r5, #1
 80026ca:	fbb3 f3f5 	udiv	r3, r3, r5
 80026ce:	f640 70fc 	movw	r0, #4092	; 0xffc
 80026d2:	3301      	adds	r3, #1
 80026d4:	4203      	tst	r3, r0
 80026d6:	d042      	beq.n	800275e <HAL_I2C_Init+0x136>
 80026d8:	f3c3 030b 	ubfx	r3, r3, #0, #12
 80026dc:	4319      	orrs	r1, r3
 80026de:	61d1      	str	r1, [r2, #28]
 80026e0:	6811      	ldr	r1, [r2, #0]
 80026e2:	e9d4 3007 	ldrd	r3, r0, [r4, #28]
 80026e6:	f021 01c0 	bic.w	r1, r1, #192	; 0xc0
 80026ea:	4303      	orrs	r3, r0
 80026ec:	430b      	orrs	r3, r1
 80026ee:	6013      	str	r3, [r2, #0]
 80026f0:	6891      	ldr	r1, [r2, #8]
 80026f2:	e9d4 0303 	ldrd	r0, r3, [r4, #12]
 80026f6:	f421 4103 	bic.w	r1, r1, #33536	; 0x8300
 80026fa:	4303      	orrs	r3, r0
 80026fc:	f021 01ff 	bic.w	r1, r1, #255	; 0xff
 8002700:	430b      	orrs	r3, r1
 8002702:	6093      	str	r3, [r2, #8]
 8002704:	68d1      	ldr	r1, [r2, #12]
 8002706:	e9d4 3005 	ldrd	r3, r0, [r4, #20]
 800270a:	f021 01ff 	bic.w	r1, r1, #255	; 0xff
 800270e:	4303      	orrs	r3, r0
 8002710:	430b      	orrs	r3, r1
 8002712:	60d3      	str	r3, [r2, #12]
 8002714:	6813      	ldr	r3, [r2, #0]
 8002716:	2000      	movs	r0, #0
 8002718:	f043 0301 	orr.w	r3, r3, #1
 800271c:	6013      	str	r3, [r2, #0]
 800271e:	2320      	movs	r3, #32
 8002720:	6420      	str	r0, [r4, #64]	; 0x40
 8002722:	f884 303d 	strb.w	r3, [r4, #61]	; 0x3d
 8002726:	6320      	str	r0, [r4, #48]	; 0x30
 8002728:	f884 003e 	strb.w	r0, [r4, #62]	; 0x3e
 800272c:	e780      	b.n	8002630 <HAL_I2C_Init+0x8>
 800272e:	68a0      	ldr	r0, [r4, #8]
 8002730:	b950      	cbnz	r0, 8002748 <HAL_I2C_Init+0x120>
 8002732:	eb05 0545 	add.w	r5, r5, r5, lsl #1
 8002736:	fbb3 f3f5 	udiv	r3, r3, r5
 800273a:	3301      	adds	r3, #1
 800273c:	f3c3 030b 	ubfx	r3, r3, #0, #12
 8002740:	b17b      	cbz	r3, 8002762 <HAL_I2C_Init+0x13a>
 8002742:	f443 4300 	orr.w	r3, r3, #32768	; 0x8000
 8002746:	e7c9      	b.n	80026dc <HAL_I2C_Init+0xb4>
 8002748:	2019      	movs	r0, #25
 800274a:	4368      	muls	r0, r5
 800274c:	fbb3 f3f0 	udiv	r3, r3, r0
 8002750:	3301      	adds	r3, #1
 8002752:	f3c3 030b 	ubfx	r3, r3, #0, #12
 8002756:	b123      	cbz	r3, 8002762 <HAL_I2C_Init+0x13a>
 8002758:	f443 4340 	orr.w	r3, r3, #49152	; 0xc000
 800275c:	e7be      	b.n	80026dc <HAL_I2C_Init+0xb4>
 800275e:	2304      	movs	r3, #4
 8002760:	e7bc      	b.n	80026dc <HAL_I2C_Init+0xb4>
 8002762:	2301      	movs	r3, #1
 8002764:	e7ba      	b.n	80026dc <HAL_I2C_Init+0xb4>
 8002766:	bf00      	nop
 8002768:	000186a0 	.word	0x000186a0
 800276c:	001e847f 	.word	0x001e847f
 8002770:	003d08ff 	.word	0x003d08ff
 8002774:	000f4240 	.word	0x000f4240

08002778 <HAL_I2C_Master_Transmit>:
 8002778:	e92d 43f0 	stmdb	sp!, {r4, r5, r6, r7, r8, r9, lr}
 800277c:	4604      	mov	r4, r0
 800277e:	b085      	sub	sp, #20
 8002780:	4698      	mov	r8, r3
 8002782:	460d      	mov	r5, r1
 8002784:	4691      	mov	r9, r2
 8002786:	9f0c      	ldr	r7, [sp, #48]	; 0x30
 8002788:	f7ff f8ec 	bl	8001964 <HAL_GetTick>
 800278c:	f894 303d 	ldrb.w	r3, [r4, #61]	; 0x3d
 8002790:	4606      	mov	r6, r0
 8002792:	2b20      	cmp	r3, #32
 8002794:	d004      	beq.n	80027a0 <HAL_I2C_Master_Transmit+0x28>
 8002796:	2502      	movs	r5, #2
 8002798:	4628      	mov	r0, r5
 800279a:	b005      	add	sp, #20
 800279c:	e8bd 83f0 	ldmia.w	sp!, {r4, r5, r6, r7, r8, r9, pc}
 80027a0:	9000      	str	r0, [sp, #0]
 80027a2:	2319      	movs	r3, #25
 80027a4:	2201      	movs	r2, #1
 80027a6:	4620      	mov	r0, r4
 80027a8:	495b      	ldr	r1, [pc, #364]	; (8002918 <HAL_I2C_Master_Transmit+0x1a0>)
 80027aa:	f7ff fe66 	bl	800247a <I2C_WaitOnFlagUntilTimeout>
 80027ae:	2800      	cmp	r0, #0
 80027b0:	d1f1      	bne.n	8002796 <HAL_I2C_Master_Transmit+0x1e>
 80027b2:	f894 303c 	ldrb.w	r3, [r4, #60]	; 0x3c
 80027b6:	2b01      	cmp	r3, #1
 80027b8:	d0ed      	beq.n	8002796 <HAL_I2C_Master_Transmit+0x1e>
 80027ba:	2301      	movs	r3, #1
 80027bc:	6821      	ldr	r1, [r4, #0]
 80027be:	f884 303c 	strb.w	r3, [r4, #60]	; 0x3c
 80027c2:	680b      	ldr	r3, [r1, #0]
 80027c4:	07da      	lsls	r2, r3, #31
 80027c6:	bf5e      	ittt	pl
 80027c8:	680b      	ldrpl	r3, [r1, #0]
 80027ca:	f043 0301 	orrpl.w	r3, r3, #1
 80027ce:	600b      	strpl	r3, [r1, #0]
 80027d0:	680b      	ldr	r3, [r1, #0]
 80027d2:	f423 6300 	bic.w	r3, r3, #2048	; 0x800
 80027d6:	600b      	str	r3, [r1, #0]
 80027d8:	2321      	movs	r3, #33	; 0x21
 80027da:	f884 303d 	strb.w	r3, [r4, #61]	; 0x3d
 80027de:	2310      	movs	r3, #16
 80027e0:	f884 303e 	strb.w	r3, [r4, #62]	; 0x3e
 80027e4:	2300      	movs	r3, #0
 80027e6:	6423      	str	r3, [r4, #64]	; 0x40
 80027e8:	f8a4 802a 	strh.w	r8, [r4, #42]	; 0x2a
 80027ec:	8d63      	ldrh	r3, [r4, #42]	; 0x2a
 80027ee:	f8c4 9024 	str.w	r9, [r4, #36]	; 0x24
 80027f2:	8523      	strh	r3, [r4, #40]	; 0x28
 80027f4:	4b49      	ldr	r3, [pc, #292]	; (800291c <HAL_I2C_Master_Transmit+0x1a4>)
 80027f6:	62e3      	str	r3, [r4, #44]	; 0x2c
 80027f8:	6ae3      	ldr	r3, [r4, #44]	; 0x2c
 80027fa:	2b08      	cmp	r3, #8
 80027fc:	d004      	beq.n	8002808 <HAL_I2C_Master_Transmit+0x90>
 80027fe:	2b01      	cmp	r3, #1
 8002800:	d002      	beq.n	8002808 <HAL_I2C_Master_Transmit+0x90>
 8002802:	f513 3f80 	cmn.w	r3, #65536	; 0x10000
 8002806:	d104      	bne.n	8002812 <HAL_I2C_Master_Transmit+0x9a>
 8002808:	680b      	ldr	r3, [r1, #0]
 800280a:	f443 7380 	orr.w	r3, r3, #256	; 0x100
 800280e:	600b      	str	r3, [r1, #0]
 8002810:	e002      	b.n	8002818 <HAL_I2C_Master_Transmit+0xa0>
 8002812:	6b23      	ldr	r3, [r4, #48]	; 0x30
 8002814:	2b12      	cmp	r3, #18
 8002816:	d0f7      	beq.n	8002808 <HAL_I2C_Master_Transmit+0x90>
 8002818:	2200      	movs	r2, #0
 800281a:	463b      	mov	r3, r7
 800281c:	f04f 1101 	mov.w	r1, #65537	; 0x10001
 8002820:	4620      	mov	r0, r4
 8002822:	9600      	str	r6, [sp, #0]
 8002824:	f7ff fe29 	bl	800247a <I2C_WaitOnFlagUntilTimeout>
 8002828:	6822      	ldr	r2, [r4, #0]
 800282a:	b138      	cbz	r0, 800283c <HAL_I2C_Master_Transmit+0xc4>
 800282c:	6813      	ldr	r3, [r2, #0]
 800282e:	05db      	lsls	r3, r3, #23
 8002830:	bf44      	itt	mi
 8002832:	f44f 7300 	movmi.w	r3, #512	; 0x200
 8002836:	6423      	strmi	r3, [r4, #64]	; 0x40
 8002838:	2501      	movs	r5, #1
 800283a:	e7ad      	b.n	8002798 <HAL_I2C_Master_Transmit+0x20>
 800283c:	6923      	ldr	r3, [r4, #16]
 800283e:	f5b3 4f80 	cmp.w	r3, #16384	; 0x4000
 8002842:	d121      	bne.n	8002888 <HAL_I2C_Master_Transmit+0x110>
 8002844:	f005 05fe 	and.w	r5, r5, #254	; 0xfe
 8002848:	6115      	str	r5, [r2, #16]
 800284a:	4633      	mov	r3, r6
 800284c:	463a      	mov	r2, r7
 800284e:	4620      	mov	r0, r4
 8002850:	4933      	ldr	r1, [pc, #204]	; (8002920 <HAL_I2C_Master_Transmit+0x1a8>)
 8002852:	f7ff fe52 	bl	80024fa <I2C_WaitOnMasterAddressFlagUntilTimeout>
 8002856:	4605      	mov	r5, r0
 8002858:	2800      	cmp	r0, #0
 800285a:	d1ed      	bne.n	8002838 <HAL_I2C_Master_Transmit+0xc0>
 800285c:	6823      	ldr	r3, [r4, #0]
 800285e:	9003      	str	r0, [sp, #12]
 8002860:	695a      	ldr	r2, [r3, #20]
 8002862:	9203      	str	r2, [sp, #12]
 8002864:	699b      	ldr	r3, [r3, #24]
 8002866:	9303      	str	r3, [sp, #12]
 8002868:	9b03      	ldr	r3, [sp, #12]
 800286a:	8d23      	ldrh	r3, [r4, #40]	; 0x28
 800286c:	b9f3      	cbnz	r3, 80028ac <HAL_I2C_Master_Transmit+0x134>
 800286e:	6821      	ldr	r1, [r4, #0]
 8002870:	680a      	ldr	r2, [r1, #0]
 8002872:	f442 7200 	orr.w	r2, r2, #512	; 0x200
 8002876:	600a      	str	r2, [r1, #0]
 8002878:	2220      	movs	r2, #32
 800287a:	f884 303c 	strb.w	r3, [r4, #60]	; 0x3c
 800287e:	f884 203d 	strb.w	r2, [r4, #61]	; 0x3d
 8002882:	f884 303e 	strb.w	r3, [r4, #62]	; 0x3e
 8002886:	e787      	b.n	8002798 <HAL_I2C_Master_Transmit+0x20>
 8002888:	11eb      	asrs	r3, r5, #7
 800288a:	f003 0306 	and.w	r3, r3, #6
 800288e:	f043 03f0 	orr.w	r3, r3, #240	; 0xf0
 8002892:	6113      	str	r3, [r2, #16]
 8002894:	4620      	mov	r0, r4
 8002896:	4633      	mov	r3, r6
 8002898:	463a      	mov	r2, r7
 800289a:	4922      	ldr	r1, [pc, #136]	; (8002924 <HAL_I2C_Master_Transmit+0x1ac>)
 800289c:	f7ff fe2d 	bl	80024fa <I2C_WaitOnMasterAddressFlagUntilTimeout>
 80028a0:	2800      	cmp	r0, #0
 80028a2:	d1c9      	bne.n	8002838 <HAL_I2C_Master_Transmit+0xc0>
 80028a4:	6823      	ldr	r3, [r4, #0]
 80028a6:	b2ed      	uxtb	r5, r5
 80028a8:	611d      	str	r5, [r3, #16]
 80028aa:	e7ce      	b.n	800284a <HAL_I2C_Master_Transmit+0xd2>
 80028ac:	4632      	mov	r2, r6
 80028ae:	4639      	mov	r1, r7
 80028b0:	4620      	mov	r0, r4
 80028b2:	f7ff fe64 	bl	800257e <I2C_WaitOnTXEFlagUntilTimeout>
 80028b6:	b140      	cbz	r0, 80028ca <HAL_I2C_Master_Transmit+0x152>
 80028b8:	6c23      	ldr	r3, [r4, #64]	; 0x40
 80028ba:	2b04      	cmp	r3, #4
 80028bc:	d1bc      	bne.n	8002838 <HAL_I2C_Master_Transmit+0xc0>
 80028be:	6822      	ldr	r2, [r4, #0]
 80028c0:	6813      	ldr	r3, [r2, #0]
 80028c2:	f443 7300 	orr.w	r3, r3, #512	; 0x200
 80028c6:	6013      	str	r3, [r2, #0]
 80028c8:	e7b6      	b.n	8002838 <HAL_I2C_Master_Transmit+0xc0>
 80028ca:	6a63      	ldr	r3, [r4, #36]	; 0x24
 80028cc:	6820      	ldr	r0, [r4, #0]
 80028ce:	461a      	mov	r2, r3
 80028d0:	f812 1b01 	ldrb.w	r1, [r2], #1
 80028d4:	6101      	str	r1, [r0, #16]
 80028d6:	6262      	str	r2, [r4, #36]	; 0x24
 80028d8:	8d62      	ldrh	r2, [r4, #42]	; 0x2a
 80028da:	3a01      	subs	r2, #1
 80028dc:	b292      	uxth	r2, r2
 80028de:	8562      	strh	r2, [r4, #42]	; 0x2a
 80028e0:	8d22      	ldrh	r2, [r4, #40]	; 0x28
 80028e2:	f8d0 c014 	ldr.w	ip, [r0, #20]
 80028e6:	1e51      	subs	r1, r2, #1
 80028e8:	b289      	uxth	r1, r1
 80028ea:	f01c 0f04 	tst.w	ip, #4
 80028ee:	8521      	strh	r1, [r4, #40]	; 0x28
 80028f0:	d00a      	beq.n	8002908 <HAL_I2C_Master_Transmit+0x190>
 80028f2:	b149      	cbz	r1, 8002908 <HAL_I2C_Master_Transmit+0x190>
 80028f4:	7859      	ldrb	r1, [r3, #1]
 80028f6:	3302      	adds	r3, #2
 80028f8:	6101      	str	r1, [r0, #16]
 80028fa:	6263      	str	r3, [r4, #36]	; 0x24
 80028fc:	8d63      	ldrh	r3, [r4, #42]	; 0x2a
 80028fe:	3a02      	subs	r2, #2
 8002900:	3b01      	subs	r3, #1
 8002902:	b29b      	uxth	r3, r3
 8002904:	8563      	strh	r3, [r4, #42]	; 0x2a
 8002906:	8522      	strh	r2, [r4, #40]	; 0x28
 8002908:	4632      	mov	r2, r6
 800290a:	4639      	mov	r1, r7
 800290c:	4620      	mov	r0, r4
 800290e:	f7ff fe60 	bl	80025d2 <I2C_WaitOnBTFFlagUntilTimeout>
 8002912:	2800      	cmp	r0, #0
 8002914:	d0a9      	beq.n	800286a <HAL_I2C_Master_Transmit+0xf2>
 8002916:	e7cf      	b.n	80028b8 <HAL_I2C_Master_Transmit+0x140>
 8002918:	00100002 	.word	0x00100002
 800291c:	ffff0000 	.word	0xffff0000
 8002920:	00010002 	.word	0x00010002
 8002924:	00010008 	.word	0x00010008

08002928 <HAL_I2C_IsDeviceReady>:
 8002928:	e92d 4ff0 	stmdb	sp!, {r4, r5, r6, r7, r8, r9, sl, fp, lr}
 800292c:	4604      	mov	r4, r0
 800292e:	b085      	sub	sp, #20
 8002930:	461f      	mov	r7, r3
 8002932:	4688      	mov	r8, r1
 8002934:	4692      	mov	sl, r2
 8002936:	f7ff f815 	bl	8001964 <HAL_GetTick>
 800293a:	f894 303d 	ldrb.w	r3, [r4, #61]	; 0x3d
 800293e:	4605      	mov	r5, r0
 8002940:	2b20      	cmp	r3, #32
 8002942:	d003      	beq.n	800294c <HAL_I2C_IsDeviceReady+0x24>
 8002944:	2002      	movs	r0, #2
 8002946:	b005      	add	sp, #20
 8002948:	e8bd 8ff0 	ldmia.w	sp!, {r4, r5, r6, r7, r8, r9, sl, fp, pc}
 800294c:	9000      	str	r0, [sp, #0]
 800294e:	2319      	movs	r3, #25
 8002950:	2201      	movs	r2, #1
 8002952:	4620      	mov	r0, r4
 8002954:	494a      	ldr	r1, [pc, #296]	; (8002a80 <HAL_I2C_IsDeviceReady+0x158>)
 8002956:	f7ff fd90 	bl	800247a <I2C_WaitOnFlagUntilTimeout>
 800295a:	2800      	cmp	r0, #0
 800295c:	d1f2      	bne.n	8002944 <HAL_I2C_IsDeviceReady+0x1c>
 800295e:	f894 303c 	ldrb.w	r3, [r4, #60]	; 0x3c
 8002962:	2b01      	cmp	r3, #1
 8002964:	d0ee      	beq.n	8002944 <HAL_I2C_IsDeviceReady+0x1c>
 8002966:	2301      	movs	r3, #1
 8002968:	f884 303c 	strb.w	r3, [r4, #60]	; 0x3c
 800296c:	6823      	ldr	r3, [r4, #0]
 800296e:	2600      	movs	r6, #0
 8002970:	681a      	ldr	r2, [r3, #0]
 8002972:	f8df b10c 	ldr.w	fp, [pc, #268]	; 8002a80 <HAL_I2C_IsDeviceReady+0x158>
 8002976:	07d2      	lsls	r2, r2, #31
 8002978:	bf58      	it	pl
 800297a:	681a      	ldrpl	r2, [r3, #0]
 800297c:	f008 08fe 	and.w	r8, r8, #254	; 0xfe
 8002980:	bf5c      	itt	pl
 8002982:	f042 0201 	orrpl.w	r2, r2, #1
 8002986:	601a      	strpl	r2, [r3, #0]
 8002988:	681a      	ldr	r2, [r3, #0]
 800298a:	f422 6200 	bic.w	r2, r2, #2048	; 0x800
 800298e:	601a      	str	r2, [r3, #0]
 8002990:	2324      	movs	r3, #36	; 0x24
 8002992:	f884 303d 	strb.w	r3, [r4, #61]	; 0x3d
 8002996:	4b3b      	ldr	r3, [pc, #236]	; (8002a84 <HAL_I2C_IsDeviceReady+0x15c>)
 8002998:	6426      	str	r6, [r4, #64]	; 0x40
 800299a:	62e3      	str	r3, [r4, #44]	; 0x2c
 800299c:	6822      	ldr	r2, [r4, #0]
 800299e:	f04f 1101 	mov.w	r1, #65537	; 0x10001
 80029a2:	6813      	ldr	r3, [r2, #0]
 80029a4:	4620      	mov	r0, r4
 80029a6:	f443 7380 	orr.w	r3, r3, #256	; 0x100
 80029aa:	6013      	str	r3, [r2, #0]
 80029ac:	463b      	mov	r3, r7
 80029ae:	2200      	movs	r2, #0
 80029b0:	9500      	str	r5, [sp, #0]
 80029b2:	f7ff fd62 	bl	800247a <I2C_WaitOnFlagUntilTimeout>
 80029b6:	6823      	ldr	r3, [r4, #0]
 80029b8:	b138      	cbz	r0, 80029ca <HAL_I2C_IsDeviceReady+0xa2>
 80029ba:	681b      	ldr	r3, [r3, #0]
 80029bc:	05db      	lsls	r3, r3, #23
 80029be:	d502      	bpl.n	80029c6 <HAL_I2C_IsDeviceReady+0x9e>
 80029c0:	f44f 7300 	mov.w	r3, #512	; 0x200
 80029c4:	6423      	str	r3, [r4, #64]	; 0x40
 80029c6:	2003      	movs	r0, #3
 80029c8:	e7bd      	b.n	8002946 <HAL_I2C_IsDeviceReady+0x1e>
 80029ca:	f8c3 8010 	str.w	r8, [r3, #16]
 80029ce:	f7fe ffc9 	bl	8001964 <HAL_GetTick>
 80029d2:	f04f 09a0 	mov.w	r9, #160	; 0xa0
 80029d6:	4605      	mov	r5, r0
 80029d8:	6823      	ldr	r3, [r4, #0]
 80029da:	695a      	ldr	r2, [r3, #20]
 80029dc:	695b      	ldr	r3, [r3, #20]
 80029de:	f3c2 0240 	ubfx	r2, r2, #1, #1
 80029e2:	f3c3 2380 	ubfx	r3, r3, #10, #1
 80029e6:	f894 103d 	ldrb.w	r1, [r4, #61]	; 0x3d
 80029ea:	29a0      	cmp	r1, #160	; 0xa0
 80029ec:	d001      	beq.n	80029f2 <HAL_I2C_IsDeviceReady+0xca>
 80029ee:	4313      	orrs	r3, r2
 80029f0:	d01d      	beq.n	8002a2e <HAL_I2C_IsDeviceReady+0x106>
 80029f2:	f04f 0920 	mov.w	r9, #32
 80029f6:	6823      	ldr	r3, [r4, #0]
 80029f8:	f884 903d 	strb.w	r9, [r4, #61]	; 0x3d
 80029fc:	695a      	ldr	r2, [r3, #20]
 80029fe:	f012 0f02 	tst.w	r2, #2
 8002a02:	681a      	ldr	r2, [r3, #0]
 8002a04:	f442 7200 	orr.w	r2, r2, #512	; 0x200
 8002a08:	601a      	str	r2, [r3, #0]
 8002a0a:	d025      	beq.n	8002a58 <HAL_I2C_IsDeviceReady+0x130>
 8002a0c:	2200      	movs	r2, #0
 8002a0e:	9203      	str	r2, [sp, #12]
 8002a10:	695a      	ldr	r2, [r3, #20]
 8002a12:	4620      	mov	r0, r4
 8002a14:	9203      	str	r2, [sp, #12]
 8002a16:	699b      	ldr	r3, [r3, #24]
 8002a18:	2201      	movs	r2, #1
 8002a1a:	9303      	str	r3, [sp, #12]
 8002a1c:	9b03      	ldr	r3, [sp, #12]
 8002a1e:	4918      	ldr	r1, [pc, #96]	; (8002a80 <HAL_I2C_IsDeviceReady+0x158>)
 8002a20:	2319      	movs	r3, #25
 8002a22:	9500      	str	r5, [sp, #0]
 8002a24:	f7ff fd29 	bl	800247a <I2C_WaitOnFlagUntilTimeout>
 8002a28:	b188      	cbz	r0, 8002a4e <HAL_I2C_IsDeviceReady+0x126>
 8002a2a:	2001      	movs	r0, #1
 8002a2c:	e78b      	b.n	8002946 <HAL_I2C_IsDeviceReady+0x1e>
 8002a2e:	f7fe ff99 	bl	8001964 <HAL_GetTick>
 8002a32:	1b40      	subs	r0, r0, r5
 8002a34:	42b8      	cmp	r0, r7
 8002a36:	d800      	bhi.n	8002a3a <HAL_I2C_IsDeviceReady+0x112>
 8002a38:	b90f      	cbnz	r7, 8002a3e <HAL_I2C_IsDeviceReady+0x116>
 8002a3a:	f884 903d 	strb.w	r9, [r4, #61]	; 0x3d
 8002a3e:	6823      	ldr	r3, [r4, #0]
 8002a40:	695a      	ldr	r2, [r3, #20]
 8002a42:	695b      	ldr	r3, [r3, #20]
 8002a44:	f3c2 0240 	ubfx	r2, r2, #1, #1
 8002a48:	f3c3 2380 	ubfx	r3, r3, #10, #1
 8002a4c:	e7cb      	b.n	80029e6 <HAL_I2C_IsDeviceReady+0xbe>
 8002a4e:	f884 903d 	strb.w	r9, [r4, #61]	; 0x3d
 8002a52:	f884 003c 	strb.w	r0, [r4, #60]	; 0x3c
 8002a56:	e776      	b.n	8002946 <HAL_I2C_IsDeviceReady+0x1e>
 8002a58:	f46f 6280 	mvn.w	r2, #1024	; 0x400
 8002a5c:	4659      	mov	r1, fp
 8002a5e:	615a      	str	r2, [r3, #20]
 8002a60:	4620      	mov	r0, r4
 8002a62:	2319      	movs	r3, #25
 8002a64:	2201      	movs	r2, #1
 8002a66:	9500      	str	r5, [sp, #0]
 8002a68:	f7ff fd07 	bl	800247a <I2C_WaitOnFlagUntilTimeout>
 8002a6c:	2800      	cmp	r0, #0
 8002a6e:	d1dc      	bne.n	8002a2a <HAL_I2C_IsDeviceReady+0x102>
 8002a70:	3601      	adds	r6, #1
 8002a72:	4556      	cmp	r6, sl
 8002a74:	d392      	bcc.n	800299c <HAL_I2C_IsDeviceReady+0x74>
 8002a76:	f884 903d 	strb.w	r9, [r4, #61]	; 0x3d
 8002a7a:	f884 003c 	strb.w	r0, [r4, #60]	; 0x3c
 8002a7e:	e7d4      	b.n	8002a2a <HAL_I2C_IsDeviceReady+0x102>
 8002a80:	00100002 	.word	0x00100002
 8002a84:	ffff0000 	.word	0xffff0000

08002a88 <HAL_RCC_OscConfig>:
 8002a88:	e92d 41f3 	stmdb	sp!, {r0, r1, r4, r5, r6, r7, r8, lr}
 8002a8c:	4605      	mov	r5, r0
 8002a8e:	b338      	cbz	r0, 8002ae0 <HAL_RCC_OscConfig+0x58>
 8002a90:	6803      	ldr	r3, [r0, #0]
 8002a92:	07db      	lsls	r3, r3, #31
 8002a94:	d410      	bmi.n	8002ab8 <HAL_RCC_OscConfig+0x30>
 8002a96:	682b      	ldr	r3, [r5, #0]
 8002a98:	079f      	lsls	r7, r3, #30
 8002a9a:	d45e      	bmi.n	8002b5a <HAL_RCC_OscConfig+0xd2>
 8002a9c:	682b      	ldr	r3, [r5, #0]
 8002a9e:	0719      	lsls	r1, r3, #28
 8002aa0:	f100 8095 	bmi.w	8002bce <HAL_RCC_OscConfig+0x146>
 8002aa4:	682b      	ldr	r3, [r5, #0]
 8002aa6:	075a      	lsls	r2, r3, #29
 8002aa8:	f100 80c1 	bmi.w	8002c2e <HAL_RCC_OscConfig+0x1a6>
 8002aac:	69e8      	ldr	r0, [r5, #28]
 8002aae:	2800      	cmp	r0, #0
 8002ab0:	f040 812c 	bne.w	8002d0c <HAL_RCC_OscConfig+0x284>
 8002ab4:	2000      	movs	r0, #0
 8002ab6:	e029      	b.n	8002b0c <HAL_RCC_OscConfig+0x84>
 8002ab8:	4c90      	ldr	r4, [pc, #576]	; (8002cfc <HAL_RCC_OscConfig+0x274>)
 8002aba:	6863      	ldr	r3, [r4, #4]
 8002abc:	f003 030c 	and.w	r3, r3, #12
 8002ac0:	2b04      	cmp	r3, #4
 8002ac2:	d007      	beq.n	8002ad4 <HAL_RCC_OscConfig+0x4c>
 8002ac4:	6863      	ldr	r3, [r4, #4]
 8002ac6:	f003 030c 	and.w	r3, r3, #12
 8002aca:	2b08      	cmp	r3, #8
 8002acc:	d10a      	bne.n	8002ae4 <HAL_RCC_OscConfig+0x5c>
 8002ace:	6863      	ldr	r3, [r4, #4]
 8002ad0:	03de      	lsls	r6, r3, #15
 8002ad2:	d507      	bpl.n	8002ae4 <HAL_RCC_OscConfig+0x5c>
 8002ad4:	6823      	ldr	r3, [r4, #0]
 8002ad6:	039c      	lsls	r4, r3, #14
 8002ad8:	d5dd      	bpl.n	8002a96 <HAL_RCC_OscConfig+0xe>
 8002ada:	686b      	ldr	r3, [r5, #4]
 8002adc:	2b00      	cmp	r3, #0
 8002ade:	d1da      	bne.n	8002a96 <HAL_RCC_OscConfig+0xe>
 8002ae0:	2001      	movs	r0, #1
 8002ae2:	e013      	b.n	8002b0c <HAL_RCC_OscConfig+0x84>
 8002ae4:	686b      	ldr	r3, [r5, #4]
 8002ae6:	f5b3 3f80 	cmp.w	r3, #65536	; 0x10000
 8002aea:	d112      	bne.n	8002b12 <HAL_RCC_OscConfig+0x8a>
 8002aec:	6823      	ldr	r3, [r4, #0]
 8002aee:	f443 3380 	orr.w	r3, r3, #65536	; 0x10000
 8002af2:	6023      	str	r3, [r4, #0]
 8002af4:	f7fe ff36 	bl	8001964 <HAL_GetTick>
 8002af8:	4606      	mov	r6, r0
 8002afa:	6823      	ldr	r3, [r4, #0]
 8002afc:	0398      	lsls	r0, r3, #14
 8002afe:	d4ca      	bmi.n	8002a96 <HAL_RCC_OscConfig+0xe>
 8002b00:	f7fe ff30 	bl	8001964 <HAL_GetTick>
 8002b04:	1b80      	subs	r0, r0, r6
 8002b06:	2864      	cmp	r0, #100	; 0x64
 8002b08:	d9f7      	bls.n	8002afa <HAL_RCC_OscConfig+0x72>
 8002b0a:	2003      	movs	r0, #3
 8002b0c:	b002      	add	sp, #8
 8002b0e:	e8bd 81f0 	ldmia.w	sp!, {r4, r5, r6, r7, r8, pc}
 8002b12:	b99b      	cbnz	r3, 8002b3c <HAL_RCC_OscConfig+0xb4>
 8002b14:	6823      	ldr	r3, [r4, #0]
 8002b16:	f423 3380 	bic.w	r3, r3, #65536	; 0x10000
 8002b1a:	6023      	str	r3, [r4, #0]
 8002b1c:	6823      	ldr	r3, [r4, #0]
 8002b1e:	f423 2380 	bic.w	r3, r3, #262144	; 0x40000
 8002b22:	6023      	str	r3, [r4, #0]
 8002b24:	f7fe ff1e 	bl	8001964 <HAL_GetTick>
 8002b28:	4606      	mov	r6, r0
 8002b2a:	6823      	ldr	r3, [r4, #0]
 8002b2c:	0399      	lsls	r1, r3, #14
 8002b2e:	d5b2      	bpl.n	8002a96 <HAL_RCC_OscConfig+0xe>
 8002b30:	f7fe ff18 	bl	8001964 <HAL_GetTick>
 8002b34:	1b80      	subs	r0, r0, r6
 8002b36:	2864      	cmp	r0, #100	; 0x64
 8002b38:	d9f7      	bls.n	8002b2a <HAL_RCC_OscConfig+0xa2>
 8002b3a:	e7e6      	b.n	8002b0a <HAL_RCC_OscConfig+0x82>
 8002b3c:	f5b3 2fa0 	cmp.w	r3, #327680	; 0x50000
 8002b40:	6823      	ldr	r3, [r4, #0]
 8002b42:	d103      	bne.n	8002b4c <HAL_RCC_OscConfig+0xc4>
 8002b44:	f443 2380 	orr.w	r3, r3, #262144	; 0x40000
 8002b48:	6023      	str	r3, [r4, #0]
 8002b4a:	e7cf      	b.n	8002aec <HAL_RCC_OscConfig+0x64>
 8002b4c:	f423 3380 	bic.w	r3, r3, #65536	; 0x10000
 8002b50:	6023      	str	r3, [r4, #0]
 8002b52:	6823      	ldr	r3, [r4, #0]
 8002b54:	f423 2380 	bic.w	r3, r3, #262144	; 0x40000
 8002b58:	e7cb      	b.n	8002af2 <HAL_RCC_OscConfig+0x6a>
 8002b5a:	4c68      	ldr	r4, [pc, #416]	; (8002cfc <HAL_RCC_OscConfig+0x274>)
 8002b5c:	6863      	ldr	r3, [r4, #4]
 8002b5e:	f013 0f0c 	tst.w	r3, #12
 8002b62:	d007      	beq.n	8002b74 <HAL_RCC_OscConfig+0xec>
 8002b64:	6863      	ldr	r3, [r4, #4]
 8002b66:	f003 030c 	and.w	r3, r3, #12
 8002b6a:	2b08      	cmp	r3, #8
 8002b6c:	d110      	bne.n	8002b90 <HAL_RCC_OscConfig+0x108>
 8002b6e:	6863      	ldr	r3, [r4, #4]
 8002b70:	03da      	lsls	r2, r3, #15
 8002b72:	d40d      	bmi.n	8002b90 <HAL_RCC_OscConfig+0x108>
 8002b74:	6823      	ldr	r3, [r4, #0]
 8002b76:	079b      	lsls	r3, r3, #30
 8002b78:	d502      	bpl.n	8002b80 <HAL_RCC_OscConfig+0xf8>
 8002b7a:	692b      	ldr	r3, [r5, #16]
 8002b7c:	2b01      	cmp	r3, #1
 8002b7e:	d1af      	bne.n	8002ae0 <HAL_RCC_OscConfig+0x58>
 8002b80:	6823      	ldr	r3, [r4, #0]
 8002b82:	696a      	ldr	r2, [r5, #20]
 8002b84:	f023 03f8 	bic.w	r3, r3, #248	; 0xf8
 8002b88:	ea43 03c2 	orr.w	r3, r3, r2, lsl #3
 8002b8c:	6023      	str	r3, [r4, #0]
 8002b8e:	e785      	b.n	8002a9c <HAL_RCC_OscConfig+0x14>
 8002b90:	692a      	ldr	r2, [r5, #16]
 8002b92:	4b5b      	ldr	r3, [pc, #364]	; (8002d00 <HAL_RCC_OscConfig+0x278>)
 8002b94:	b16a      	cbz	r2, 8002bb2 <HAL_RCC_OscConfig+0x12a>
 8002b96:	2201      	movs	r2, #1
 8002b98:	601a      	str	r2, [r3, #0]
 8002b9a:	f7fe fee3 	bl	8001964 <HAL_GetTick>
 8002b9e:	4606      	mov	r6, r0
 8002ba0:	6823      	ldr	r3, [r4, #0]
 8002ba2:	079f      	lsls	r7, r3, #30
 8002ba4:	d4ec      	bmi.n	8002b80 <HAL_RCC_OscConfig+0xf8>
 8002ba6:	f7fe fedd 	bl	8001964 <HAL_GetTick>
 8002baa:	1b80      	subs	r0, r0, r6
 8002bac:	2802      	cmp	r0, #2
 8002bae:	d9f7      	bls.n	8002ba0 <HAL_RCC_OscConfig+0x118>
 8002bb0:	e7ab      	b.n	8002b0a <HAL_RCC_OscConfig+0x82>
 8002bb2:	601a      	str	r2, [r3, #0]
 8002bb4:	f7fe fed6 	bl	8001964 <HAL_GetTick>
 8002bb8:	4606      	mov	r6, r0
 8002bba:	6823      	ldr	r3, [r4, #0]
 8002bbc:	0798      	lsls	r0, r3, #30
 8002bbe:	f57f af6d 	bpl.w	8002a9c <HAL_RCC_OscConfig+0x14>
 8002bc2:	f7fe fecf 	bl	8001964 <HAL_GetTick>
 8002bc6:	1b80      	subs	r0, r0, r6
 8002bc8:	2802      	cmp	r0, #2
 8002bca:	d9f6      	bls.n	8002bba <HAL_RCC_OscConfig+0x132>
 8002bcc:	e79d      	b.n	8002b0a <HAL_RCC_OscConfig+0x82>
 8002bce:	69aa      	ldr	r2, [r5, #24]
 8002bd0:	4e4a      	ldr	r6, [pc, #296]	; (8002cfc <HAL_RCC_OscConfig+0x274>)
 8002bd2:	4b4b      	ldr	r3, [pc, #300]	; (8002d00 <HAL_RCC_OscConfig+0x278>)
 8002bd4:	b1e2      	cbz	r2, 8002c10 <HAL_RCC_OscConfig+0x188>
 8002bd6:	2201      	movs	r2, #1
 8002bd8:	f8c3 2480 	str.w	r2, [r3, #1152]	; 0x480
 8002bdc:	f7fe fec2 	bl	8001964 <HAL_GetTick>
 8002be0:	4604      	mov	r4, r0
 8002be2:	6a73      	ldr	r3, [r6, #36]	; 0x24
 8002be4:	079b      	lsls	r3, r3, #30
 8002be6:	d50d      	bpl.n	8002c04 <HAL_RCC_OscConfig+0x17c>
 8002be8:	f44f 52fa 	mov.w	r2, #8000	; 0x1f40
 8002bec:	4b45      	ldr	r3, [pc, #276]	; (8002d04 <HAL_RCC_OscConfig+0x27c>)
 8002bee:	681b      	ldr	r3, [r3, #0]
 8002bf0:	fbb3 f3f2 	udiv	r3, r3, r2
 8002bf4:	9301      	str	r3, [sp, #4]
 8002bf6:	bf00      	nop
 8002bf8:	9b01      	ldr	r3, [sp, #4]
 8002bfa:	1e5a      	subs	r2, r3, #1
 8002bfc:	9201      	str	r2, [sp, #4]
 8002bfe:	2b00      	cmp	r3, #0
 8002c00:	d1f9      	bne.n	8002bf6 <HAL_RCC_OscConfig+0x16e>
 8002c02:	e74f      	b.n	8002aa4 <HAL_RCC_OscConfig+0x1c>
 8002c04:	f7fe feae 	bl	8001964 <HAL_GetTick>
 8002c08:	1b00      	subs	r0, r0, r4
 8002c0a:	2802      	cmp	r0, #2
 8002c0c:	d9e9      	bls.n	8002be2 <HAL_RCC_OscConfig+0x15a>
 8002c0e:	e77c      	b.n	8002b0a <HAL_RCC_OscConfig+0x82>
 8002c10:	f8c3 2480 	str.w	r2, [r3, #1152]	; 0x480
 8002c14:	f7fe fea6 	bl	8001964 <HAL_GetTick>
 8002c18:	4604      	mov	r4, r0
 8002c1a:	6a73      	ldr	r3, [r6, #36]	; 0x24
 8002c1c:	079f      	lsls	r7, r3, #30
 8002c1e:	f57f af41 	bpl.w	8002aa4 <HAL_RCC_OscConfig+0x1c>
 8002c22:	f7fe fe9f 	bl	8001964 <HAL_GetTick>
 8002c26:	1b00      	subs	r0, r0, r4
 8002c28:	2802      	cmp	r0, #2
 8002c2a:	d9f6      	bls.n	8002c1a <HAL_RCC_OscConfig+0x192>
 8002c2c:	e76d      	b.n	8002b0a <HAL_RCC_OscConfig+0x82>
 8002c2e:	4c33      	ldr	r4, [pc, #204]	; (8002cfc <HAL_RCC_OscConfig+0x274>)
 8002c30:	69e3      	ldr	r3, [r4, #28]
 8002c32:	00d8      	lsls	r0, r3, #3
 8002c34:	d424      	bmi.n	8002c80 <HAL_RCC_OscConfig+0x1f8>
 8002c36:	2701      	movs	r7, #1
 8002c38:	69e3      	ldr	r3, [r4, #28]
 8002c3a:	f043 5380 	orr.w	r3, r3, #268435456	; 0x10000000
 8002c3e:	61e3      	str	r3, [r4, #28]
 8002c40:	69e3      	ldr	r3, [r4, #28]
 8002c42:	f003 5380 	and.w	r3, r3, #268435456	; 0x10000000
 8002c46:	9300      	str	r3, [sp, #0]
 8002c48:	9b00      	ldr	r3, [sp, #0]
 8002c4a:	4e2f      	ldr	r6, [pc, #188]	; (8002d08 <HAL_RCC_OscConfig+0x280>)
 8002c4c:	6833      	ldr	r3, [r6, #0]
 8002c4e:	05d9      	lsls	r1, r3, #23
 8002c50:	d518      	bpl.n	8002c84 <HAL_RCC_OscConfig+0x1fc>
 8002c52:	68eb      	ldr	r3, [r5, #12]
 8002c54:	2b01      	cmp	r3, #1
 8002c56:	d126      	bne.n	8002ca6 <HAL_RCC_OscConfig+0x21e>
 8002c58:	6a23      	ldr	r3, [r4, #32]
 8002c5a:	f043 0301 	orr.w	r3, r3, #1
 8002c5e:	6223      	str	r3, [r4, #32]
 8002c60:	f7fe fe80 	bl	8001964 <HAL_GetTick>
 8002c64:	f241 3888 	movw	r8, #5000	; 0x1388
 8002c68:	4606      	mov	r6, r0
 8002c6a:	6a23      	ldr	r3, [r4, #32]
 8002c6c:	079b      	lsls	r3, r3, #30
 8002c6e:	d53f      	bpl.n	8002cf0 <HAL_RCC_OscConfig+0x268>
 8002c70:	2f00      	cmp	r7, #0
 8002c72:	f43f af1b 	beq.w	8002aac <HAL_RCC_OscConfig+0x24>
 8002c76:	69e3      	ldr	r3, [r4, #28]
 8002c78:	f023 5380 	bic.w	r3, r3, #268435456	; 0x10000000
 8002c7c:	61e3      	str	r3, [r4, #28]
 8002c7e:	e715      	b.n	8002aac <HAL_RCC_OscConfig+0x24>
 8002c80:	2700      	movs	r7, #0
 8002c82:	e7e2      	b.n	8002c4a <HAL_RCC_OscConfig+0x1c2>
 8002c84:	6833      	ldr	r3, [r6, #0]
 8002c86:	f443 7380 	orr.w	r3, r3, #256	; 0x100
 8002c8a:	6033      	str	r3, [r6, #0]
 8002c8c:	f7fe fe6a 	bl	8001964 <HAL_GetTick>
 8002c90:	4680      	mov	r8, r0
 8002c92:	6833      	ldr	r3, [r6, #0]
 8002c94:	05da      	lsls	r2, r3, #23
 8002c96:	d4dc      	bmi.n	8002c52 <HAL_RCC_OscConfig+0x1ca>
 8002c98:	f7fe fe64 	bl	8001964 <HAL_GetTick>
 8002c9c:	eba0 0008 	sub.w	r0, r0, r8
 8002ca0:	2864      	cmp	r0, #100	; 0x64
 8002ca2:	d9f6      	bls.n	8002c92 <HAL_RCC_OscConfig+0x20a>
 8002ca4:	e731      	b.n	8002b0a <HAL_RCC_OscConfig+0x82>
 8002ca6:	b9ab      	cbnz	r3, 8002cd4 <HAL_RCC_OscConfig+0x24c>
 8002ca8:	6a23      	ldr	r3, [r4, #32]
 8002caa:	f241 3888 	movw	r8, #5000	; 0x1388
 8002cae:	f023 0301 	bic.w	r3, r3, #1
 8002cb2:	6223      	str	r3, [r4, #32]
 8002cb4:	6a23      	ldr	r3, [r4, #32]
 8002cb6:	f023 0304 	bic.w	r3, r3, #4
 8002cba:	6223      	str	r3, [r4, #32]
 8002cbc:	f7fe fe52 	bl	8001964 <HAL_GetTick>
 8002cc0:	4606      	mov	r6, r0
 8002cc2:	6a23      	ldr	r3, [r4, #32]
 8002cc4:	0798      	lsls	r0, r3, #30
 8002cc6:	d5d3      	bpl.n	8002c70 <HAL_RCC_OscConfig+0x1e8>
 8002cc8:	f7fe fe4c 	bl	8001964 <HAL_GetTick>
 8002ccc:	1b80      	subs	r0, r0, r6
 8002cce:	4540      	cmp	r0, r8
 8002cd0:	d9f7      	bls.n	8002cc2 <HAL_RCC_OscConfig+0x23a>
 8002cd2:	e71a      	b.n	8002b0a <HAL_RCC_OscConfig+0x82>
 8002cd4:	2b05      	cmp	r3, #5
 8002cd6:	6a23      	ldr	r3, [r4, #32]
 8002cd8:	d103      	bne.n	8002ce2 <HAL_RCC_OscConfig+0x25a>
 8002cda:	f043 0304 	orr.w	r3, r3, #4
 8002cde:	6223      	str	r3, [r4, #32]
 8002ce0:	e7ba      	b.n	8002c58 <HAL_RCC_OscConfig+0x1d0>
 8002ce2:	f023 0301 	bic.w	r3, r3, #1
 8002ce6:	6223      	str	r3, [r4, #32]
 8002ce8:	6a23      	ldr	r3, [r4, #32]
 8002cea:	f023 0304 	bic.w	r3, r3, #4
 8002cee:	e7b6      	b.n	8002c5e <HAL_RCC_OscConfig+0x1d6>
 8002cf0:	f7fe fe38 	bl	8001964 <HAL_GetTick>
 8002cf4:	1b80      	subs	r0, r0, r6
 8002cf6:	4540      	cmp	r0, r8
 8002cf8:	d9b7      	bls.n	8002c6a <HAL_RCC_OscConfig+0x1e2>
 8002cfa:	e706      	b.n	8002b0a <HAL_RCC_OscConfig+0x82>
 8002cfc:	40021000 	.word	0x40021000
 8002d00:	42420000 	.word	0x42420000
 8002d04:	20000028 	.word	0x20000028
 8002d08:	40007000 	.word	0x40007000
 8002d0c:	4c2a      	ldr	r4, [pc, #168]	; (8002db8 <HAL_RCC_OscConfig+0x330>)
 8002d0e:	6863      	ldr	r3, [r4, #4]
 8002d10:	f003 030c 	and.w	r3, r3, #12
 8002d14:	2b08      	cmp	r3, #8
 8002d16:	d03e      	beq.n	8002d96 <HAL_RCC_OscConfig+0x30e>
 8002d18:	2200      	movs	r2, #0
 8002d1a:	4b28      	ldr	r3, [pc, #160]	; (8002dbc <HAL_RCC_OscConfig+0x334>)
 8002d1c:	2802      	cmp	r0, #2
 8002d1e:	661a      	str	r2, [r3, #96]	; 0x60
 8002d20:	d12c      	bne.n	8002d7c <HAL_RCC_OscConfig+0x2f4>
 8002d22:	f7fe fe1f 	bl	8001964 <HAL_GetTick>
 8002d26:	4606      	mov	r6, r0
 8002d28:	6823      	ldr	r3, [r4, #0]
 8002d2a:	0199      	lsls	r1, r3, #6
 8002d2c:	d420      	bmi.n	8002d70 <HAL_RCC_OscConfig+0x2e8>
 8002d2e:	6a2b      	ldr	r3, [r5, #32]
 8002d30:	f5b3 3f80 	cmp.w	r3, #65536	; 0x10000
 8002d34:	d105      	bne.n	8002d42 <HAL_RCC_OscConfig+0x2ba>
 8002d36:	6862      	ldr	r2, [r4, #4]
 8002d38:	68a9      	ldr	r1, [r5, #8]
 8002d3a:	f422 3200 	bic.w	r2, r2, #131072	; 0x20000
 8002d3e:	430a      	orrs	r2, r1
 8002d40:	6062      	str	r2, [r4, #4]
 8002d42:	6a69      	ldr	r1, [r5, #36]	; 0x24
 8002d44:	6862      	ldr	r2, [r4, #4]
 8002d46:	430b      	orrs	r3, r1
 8002d48:	f422 1274 	bic.w	r2, r2, #3997696	; 0x3d0000
 8002d4c:	4313      	orrs	r3, r2
 8002d4e:	2201      	movs	r2, #1
 8002d50:	6063      	str	r3, [r4, #4]
 8002d52:	4b1a      	ldr	r3, [pc, #104]	; (8002dbc <HAL_RCC_OscConfig+0x334>)
 8002d54:	661a      	str	r2, [r3, #96]	; 0x60
 8002d56:	f7fe fe05 	bl	8001964 <HAL_GetTick>
 8002d5a:	4605      	mov	r5, r0
 8002d5c:	6823      	ldr	r3, [r4, #0]
 8002d5e:	019a      	lsls	r2, r3, #6
 8002d60:	f53f aea8 	bmi.w	8002ab4 <HAL_RCC_OscConfig+0x2c>
 8002d64:	f7fe fdfe 	bl	8001964 <HAL_GetTick>
 8002d68:	1b40      	subs	r0, r0, r5
 8002d6a:	2802      	cmp	r0, #2
 8002d6c:	d9f6      	bls.n	8002d5c <HAL_RCC_OscConfig+0x2d4>
 8002d6e:	e6cc      	b.n	8002b0a <HAL_RCC_OscConfig+0x82>
 8002d70:	f7fe fdf8 	bl	8001964 <HAL_GetTick>
 8002d74:	1b80      	subs	r0, r0, r6
 8002d76:	2802      	cmp	r0, #2
 8002d78:	d9d6      	bls.n	8002d28 <HAL_RCC_OscConfig+0x2a0>
 8002d7a:	e6c6      	b.n	8002b0a <HAL_RCC_OscConfig+0x82>
 8002d7c:	f7fe fdf2 	bl	8001964 <HAL_GetTick>
 8002d80:	4605      	mov	r5, r0
 8002d82:	6823      	ldr	r3, [r4, #0]
 8002d84:	019b      	lsls	r3, r3, #6
 8002d86:	f57f ae95 	bpl.w	8002ab4 <HAL_RCC_OscConfig+0x2c>
 8002d8a:	f7fe fdeb 	bl	8001964 <HAL_GetTick>
 8002d8e:	1b40      	subs	r0, r0, r5
 8002d90:	2802      	cmp	r0, #2
 8002d92:	d9f6      	bls.n	8002d82 <HAL_RCC_OscConfig+0x2fa>
 8002d94:	e6b9      	b.n	8002b0a <HAL_RCC_OscConfig+0x82>
 8002d96:	2801      	cmp	r0, #1
 8002d98:	f43f aeb8 	beq.w	8002b0c <HAL_RCC_OscConfig+0x84>
 8002d9c:	6863      	ldr	r3, [r4, #4]
 8002d9e:	6a2a      	ldr	r2, [r5, #32]
 8002da0:	f403 3180 	and.w	r1, r3, #65536	; 0x10000
 8002da4:	4291      	cmp	r1, r2
 8002da6:	f47f ae9b 	bne.w	8002ae0 <HAL_RCC_OscConfig+0x58>
 8002daa:	6a6a      	ldr	r2, [r5, #36]	; 0x24
 8002dac:	f403 1370 	and.w	r3, r3, #3932160	; 0x3c0000
 8002db0:	4293      	cmp	r3, r2
 8002db2:	f43f ae7f 	beq.w	8002ab4 <HAL_RCC_OscConfig+0x2c>
 8002db6:	e693      	b.n	8002ae0 <HAL_RCC_OscConfig+0x58>
 8002db8:	40021000 	.word	0x40021000
 8002dbc:	42420000 	.word	0x42420000

08002dc0 <HAL_RCC_GetSysClockFreq>:
 8002dc0:	4a0d      	ldr	r2, [pc, #52]	; (8002df8 <HAL_RCC_GetSysClockFreq+0x38>)
 8002dc2:	6853      	ldr	r3, [r2, #4]
 8002dc4:	f003 010c 	and.w	r1, r3, #12
 8002dc8:	2908      	cmp	r1, #8
 8002dca:	d112      	bne.n	8002df2 <HAL_RCC_GetSysClockFreq+0x32>
 8002dcc:	480b      	ldr	r0, [pc, #44]	; (8002dfc <HAL_RCC_GetSysClockFreq+0x3c>)
 8002dce:	f3c3 4183 	ubfx	r1, r3, #18, #4
 8002dd2:	03db      	lsls	r3, r3, #15
 8002dd4:	5c40      	ldrb	r0, [r0, r1]
 8002dd6:	d509      	bpl.n	8002dec <HAL_RCC_GetSysClockFreq+0x2c>
 8002dd8:	6853      	ldr	r3, [r2, #4]
 8002dda:	4a09      	ldr	r2, [pc, #36]	; (8002e00 <HAL_RCC_GetSysClockFreq+0x40>)
 8002ddc:	f3c3 4340 	ubfx	r3, r3, #17, #1
 8002de0:	4350      	muls	r0, r2
 8002de2:	4a08      	ldr	r2, [pc, #32]	; (8002e04 <HAL_RCC_GetSysClockFreq+0x44>)
 8002de4:	5cd3      	ldrb	r3, [r2, r3]
 8002de6:	fbb0 f0f3 	udiv	r0, r0, r3
 8002dea:	4770      	bx	lr
 8002dec:	4b06      	ldr	r3, [pc, #24]	; (8002e08 <HAL_RCC_GetSysClockFreq+0x48>)
 8002dee:	4358      	muls	r0, r3
 8002df0:	4770      	bx	lr
 8002df2:	4803      	ldr	r0, [pc, #12]	; (8002e00 <HAL_RCC_GetSysClockFreq+0x40>)
 8002df4:	4770      	bx	lr
 8002df6:	bf00      	nop
 8002df8:	40021000 	.word	0x40021000
 8002dfc:	08003b23 	.word	0x08003b23
 8002e00:	007a1200 	.word	0x007a1200
 8002e04:	08003b33 	.word	0x08003b33
 8002e08:	003d0900 	.word	0x003d0900

08002e0c <HAL_RCC_ClockConfig>:
 8002e0c:	e92d 41f0 	stmdb	sp!, {r4, r5, r6, r7, r8, lr}
 8002e10:	460d      	mov	r5, r1
 8002e12:	4604      	mov	r4, r0
 8002e14:	b910      	cbnz	r0, 8002e1c <HAL_RCC_ClockConfig+0x10>
 8002e16:	2001      	movs	r0, #1
 8002e18:	e8bd 81f0 	ldmia.w	sp!, {r4, r5, r6, r7, r8, pc}
 8002e1c:	4a44      	ldr	r2, [pc, #272]	; (8002f30 <HAL_RCC_ClockConfig+0x124>)
 8002e1e:	6813      	ldr	r3, [r2, #0]
 8002e20:	f003 0307 	and.w	r3, r3, #7
 8002e24:	428b      	cmp	r3, r1
 8002e26:	d328      	bcc.n	8002e7a <HAL_RCC_ClockConfig+0x6e>
 8002e28:	6821      	ldr	r1, [r4, #0]
 8002e2a:	078e      	lsls	r6, r1, #30
 8002e2c:	d430      	bmi.n	8002e90 <HAL_RCC_ClockConfig+0x84>
 8002e2e:	07ca      	lsls	r2, r1, #31
 8002e30:	d443      	bmi.n	8002eba <HAL_RCC_ClockConfig+0xae>
 8002e32:	4a3f      	ldr	r2, [pc, #252]	; (8002f30 <HAL_RCC_ClockConfig+0x124>)
 8002e34:	6813      	ldr	r3, [r2, #0]
 8002e36:	f003 0307 	and.w	r3, r3, #7
 8002e3a:	42ab      	cmp	r3, r5
 8002e3c:	d865      	bhi.n	8002f0a <HAL_RCC_ClockConfig+0xfe>
 8002e3e:	6822      	ldr	r2, [r4, #0]
 8002e40:	4d3c      	ldr	r5, [pc, #240]	; (8002f34 <HAL_RCC_ClockConfig+0x128>)
 8002e42:	f012 0f04 	tst.w	r2, #4
 8002e46:	d16c      	bne.n	8002f22 <HAL_RCC_ClockConfig+0x116>
 8002e48:	0713      	lsls	r3, r2, #28
 8002e4a:	d506      	bpl.n	8002e5a <HAL_RCC_ClockConfig+0x4e>
 8002e4c:	686b      	ldr	r3, [r5, #4]
 8002e4e:	6922      	ldr	r2, [r4, #16]
 8002e50:	f423 5360 	bic.w	r3, r3, #14336	; 0x3800
 8002e54:	ea43 03c2 	orr.w	r3, r3, r2, lsl #3
 8002e58:	606b      	str	r3, [r5, #4]
 8002e5a:	f7ff ffb1 	bl	8002dc0 <HAL_RCC_GetSysClockFreq>
 8002e5e:	686b      	ldr	r3, [r5, #4]
 8002e60:	4a35      	ldr	r2, [pc, #212]	; (8002f38 <HAL_RCC_ClockConfig+0x12c>)
 8002e62:	f3c3 1303 	ubfx	r3, r3, #4, #4
 8002e66:	5cd3      	ldrb	r3, [r2, r3]
 8002e68:	40d8      	lsrs	r0, r3
 8002e6a:	4b34      	ldr	r3, [pc, #208]	; (8002f3c <HAL_RCC_ClockConfig+0x130>)
 8002e6c:	6018      	str	r0, [r3, #0]
 8002e6e:	4b34      	ldr	r3, [pc, #208]	; (8002f40 <HAL_RCC_ClockConfig+0x134>)
 8002e70:	6818      	ldr	r0, [r3, #0]
 8002e72:	f7fe fd35 	bl	80018e0 <HAL_InitTick>
 8002e76:	2000      	movs	r0, #0
 8002e78:	e7ce      	b.n	8002e18 <HAL_RCC_ClockConfig+0xc>
 8002e7a:	6813      	ldr	r3, [r2, #0]
 8002e7c:	f023 0307 	bic.w	r3, r3, #7
 8002e80:	430b      	orrs	r3, r1
 8002e82:	6013      	str	r3, [r2, #0]
 8002e84:	6813      	ldr	r3, [r2, #0]
 8002e86:	f003 0307 	and.w	r3, r3, #7
 8002e8a:	428b      	cmp	r3, r1
 8002e8c:	d1c3      	bne.n	8002e16 <HAL_RCC_ClockConfig+0xa>
 8002e8e:	e7cb      	b.n	8002e28 <HAL_RCC_ClockConfig+0x1c>
 8002e90:	4b28      	ldr	r3, [pc, #160]	; (8002f34 <HAL_RCC_ClockConfig+0x128>)
 8002e92:	f011 0f04 	tst.w	r1, #4
 8002e96:	bf1e      	ittt	ne
 8002e98:	685a      	ldrne	r2, [r3, #4]
 8002e9a:	f442 62e0 	orrne.w	r2, r2, #1792	; 0x700
 8002e9e:	605a      	strne	r2, [r3, #4]
 8002ea0:	0708      	lsls	r0, r1, #28
 8002ea2:	bf42      	ittt	mi
 8002ea4:	685a      	ldrmi	r2, [r3, #4]
 8002ea6:	f442 5260 	orrmi.w	r2, r2, #14336	; 0x3800
 8002eaa:	605a      	strmi	r2, [r3, #4]
 8002eac:	685a      	ldr	r2, [r3, #4]
 8002eae:	68a0      	ldr	r0, [r4, #8]
 8002eb0:	f022 02f0 	bic.w	r2, r2, #240	; 0xf0
 8002eb4:	4302      	orrs	r2, r0
 8002eb6:	605a      	str	r2, [r3, #4]
 8002eb8:	e7b9      	b.n	8002e2e <HAL_RCC_ClockConfig+0x22>
 8002eba:	6862      	ldr	r2, [r4, #4]
 8002ebc:	4e1d      	ldr	r6, [pc, #116]	; (8002f34 <HAL_RCC_ClockConfig+0x128>)
 8002ebe:	2a01      	cmp	r2, #1
 8002ec0:	6833      	ldr	r3, [r6, #0]
 8002ec2:	d11a      	bne.n	8002efa <HAL_RCC_ClockConfig+0xee>
 8002ec4:	f413 3f00 	tst.w	r3, #131072	; 0x20000
 8002ec8:	d0a5      	beq.n	8002e16 <HAL_RCC_ClockConfig+0xa>
 8002eca:	6873      	ldr	r3, [r6, #4]
 8002ecc:	f241 3888 	movw	r8, #5000	; 0x1388
 8002ed0:	f023 0303 	bic.w	r3, r3, #3
 8002ed4:	4313      	orrs	r3, r2
 8002ed6:	6073      	str	r3, [r6, #4]
 8002ed8:	f7fe fd44 	bl	8001964 <HAL_GetTick>
 8002edc:	4607      	mov	r7, r0
 8002ede:	6873      	ldr	r3, [r6, #4]
 8002ee0:	6862      	ldr	r2, [r4, #4]
 8002ee2:	f003 030c 	and.w	r3, r3, #12
 8002ee6:	ebb3 0f82 	cmp.w	r3, r2, lsl #2
 8002eea:	d0a2      	beq.n	8002e32 <HAL_RCC_ClockConfig+0x26>
 8002eec:	f7fe fd3a 	bl	8001964 <HAL_GetTick>
 8002ef0:	1bc0      	subs	r0, r0, r7
 8002ef2:	4540      	cmp	r0, r8
 8002ef4:	d9f3      	bls.n	8002ede <HAL_RCC_ClockConfig+0xd2>
 8002ef6:	2003      	movs	r0, #3
 8002ef8:	e78e      	b.n	8002e18 <HAL_RCC_ClockConfig+0xc>
 8002efa:	2a02      	cmp	r2, #2
 8002efc:	d102      	bne.n	8002f04 <HAL_RCC_ClockConfig+0xf8>
 8002efe:	f013 7f00 	tst.w	r3, #33554432	; 0x2000000
 8002f02:	e7e1      	b.n	8002ec8 <HAL_RCC_ClockConfig+0xbc>
 8002f04:	f013 0f02 	tst.w	r3, #2
 8002f08:	e7de      	b.n	8002ec8 <HAL_RCC_ClockConfig+0xbc>
 8002f0a:	6813      	ldr	r3, [r2, #0]
 8002f0c:	f023 0307 	bic.w	r3, r3, #7
 8002f10:	432b      	orrs	r3, r5
 8002f12:	6013      	str	r3, [r2, #0]
 8002f14:	6813      	ldr	r3, [r2, #0]
 8002f16:	f003 0307 	and.w	r3, r3, #7
 8002f1a:	42ab      	cmp	r3, r5
 8002f1c:	f47f af7b 	bne.w	8002e16 <HAL_RCC_ClockConfig+0xa>
 8002f20:	e78d      	b.n	8002e3e <HAL_RCC_ClockConfig+0x32>
 8002f22:	686b      	ldr	r3, [r5, #4]
 8002f24:	68e1      	ldr	r1, [r4, #12]
 8002f26:	f423 63e0 	bic.w	r3, r3, #1792	; 0x700
 8002f2a:	430b      	orrs	r3, r1
 8002f2c:	606b      	str	r3, [r5, #4]
 8002f2e:	e78b      	b.n	8002e48 <HAL_RCC_ClockConfig+0x3c>
 8002f30:	40022000 	.word	0x40022000
 8002f34:	40021000 	.word	0x40021000
 8002f38:	08003b0b 	.word	0x08003b0b
 8002f3c:	20000028 	.word	0x20000028
 8002f40:	20000030 	.word	0x20000030

08002f44 <HAL_RCC_GetPCLK1Freq>:
 8002f44:	4b04      	ldr	r3, [pc, #16]	; (8002f58 <HAL_RCC_GetPCLK1Freq+0x14>)
 8002f46:	4a05      	ldr	r2, [pc, #20]	; (8002f5c <HAL_RCC_GetPCLK1Freq+0x18>)
 8002f48:	685b      	ldr	r3, [r3, #4]
 8002f4a:	f3c3 2302 	ubfx	r3, r3, #8, #3
 8002f4e:	5cd3      	ldrb	r3, [r2, r3]
 8002f50:	4a03      	ldr	r2, [pc, #12]	; (8002f60 <HAL_RCC_GetPCLK1Freq+0x1c>)
 8002f52:	6810      	ldr	r0, [r2, #0]
 8002f54:	40d8      	lsrs	r0, r3
 8002f56:	4770      	bx	lr
 8002f58:	40021000 	.word	0x40021000
 8002f5c:	08003b1b 	.word	0x08003b1b
 8002f60:	20000028 	.word	0x20000028

08002f64 <HAL_RCC_GetPCLK2Freq>:
 8002f64:	4b04      	ldr	r3, [pc, #16]	; (8002f78 <HAL_RCC_GetPCLK2Freq+0x14>)
 8002f66:	4a05      	ldr	r2, [pc, #20]	; (8002f7c <HAL_RCC_GetPCLK2Freq+0x18>)
 8002f68:	685b      	ldr	r3, [r3, #4]
 8002f6a:	f3c3 23c2 	ubfx	r3, r3, #11, #3
 8002f6e:	5cd3      	ldrb	r3, [r2, r3]
 8002f70:	4a03      	ldr	r2, [pc, #12]	; (8002f80 <HAL_RCC_GetPCLK2Freq+0x1c>)
 8002f72:	6810      	ldr	r0, [r2, #0]
 8002f74:	40d8      	lsrs	r0, r3
 8002f76:	4770      	bx	lr
 8002f78:	40021000 	.word	0x40021000
 8002f7c:	08003b1b 	.word	0x08003b1b
 8002f80:	20000028 	.word	0x20000028

08002f84 <HAL_RCCEx_PeriphCLKConfig>:
 8002f84:	6803      	ldr	r3, [r0, #0]
 8002f86:	e92d 41f3 	stmdb	sp!, {r0, r1, r4, r5, r6, r7, r8, lr}
 8002f8a:	07d9      	lsls	r1, r3, #31
 8002f8c:	4605      	mov	r5, r0
 8002f8e:	d521      	bpl.n	8002fd4 <HAL_RCCEx_PeriphCLKConfig+0x50>
 8002f90:	4c36      	ldr	r4, [pc, #216]	; (800306c <HAL_RCCEx_PeriphCLKConfig+0xe8>)
 8002f92:	69e3      	ldr	r3, [r4, #28]
 8002f94:	00da      	lsls	r2, r3, #3
 8002f96:	d433      	bmi.n	8003000 <HAL_RCCEx_PeriphCLKConfig+0x7c>
 8002f98:	2601      	movs	r6, #1
 8002f9a:	69e3      	ldr	r3, [r4, #28]
 8002f9c:	f043 5380 	orr.w	r3, r3, #268435456	; 0x10000000
 8002fa0:	61e3      	str	r3, [r4, #28]
 8002fa2:	69e3      	ldr	r3, [r4, #28]
 8002fa4:	f003 5380 	and.w	r3, r3, #268435456	; 0x10000000
 8002fa8:	9301      	str	r3, [sp, #4]
 8002faa:	9b01      	ldr	r3, [sp, #4]
 8002fac:	4f30      	ldr	r7, [pc, #192]	; (8003070 <HAL_RCCEx_PeriphCLKConfig+0xec>)
 8002fae:	683b      	ldr	r3, [r7, #0]
 8002fb0:	05db      	lsls	r3, r3, #23
 8002fb2:	d527      	bpl.n	8003004 <HAL_RCCEx_PeriphCLKConfig+0x80>
 8002fb4:	6a23      	ldr	r3, [r4, #32]
 8002fb6:	686a      	ldr	r2, [r5, #4]
 8002fb8:	f413 7340 	ands.w	r3, r3, #768	; 0x300
 8002fbc:	d136      	bne.n	800302c <HAL_RCCEx_PeriphCLKConfig+0xa8>
 8002fbe:	6a23      	ldr	r3, [r4, #32]
 8002fc0:	686a      	ldr	r2, [r5, #4]
 8002fc2:	f423 7340 	bic.w	r3, r3, #768	; 0x300
 8002fc6:	4313      	orrs	r3, r2
 8002fc8:	6223      	str	r3, [r4, #32]
 8002fca:	b11e      	cbz	r6, 8002fd4 <HAL_RCCEx_PeriphCLKConfig+0x50>
 8002fcc:	69e3      	ldr	r3, [r4, #28]
 8002fce:	f023 5380 	bic.w	r3, r3, #268435456	; 0x10000000
 8002fd2:	61e3      	str	r3, [r4, #28]
 8002fd4:	6828      	ldr	r0, [r5, #0]
 8002fd6:	0783      	lsls	r3, r0, #30
 8002fd8:	d506      	bpl.n	8002fe8 <HAL_RCCEx_PeriphCLKConfig+0x64>
 8002fda:	4924      	ldr	r1, [pc, #144]	; (800306c <HAL_RCCEx_PeriphCLKConfig+0xe8>)
 8002fdc:	68ab      	ldr	r3, [r5, #8]
 8002fde:	684a      	ldr	r2, [r1, #4]
 8002fe0:	f422 4240 	bic.w	r2, r2, #49152	; 0xc000
 8002fe4:	431a      	orrs	r2, r3
 8002fe6:	604a      	str	r2, [r1, #4]
 8002fe8:	f010 0010 	ands.w	r0, r0, #16
 8002fec:	d01b      	beq.n	8003026 <HAL_RCCEx_PeriphCLKConfig+0xa2>
 8002fee:	4a1f      	ldr	r2, [pc, #124]	; (800306c <HAL_RCCEx_PeriphCLKConfig+0xe8>)
 8002ff0:	68e9      	ldr	r1, [r5, #12]
 8002ff2:	6853      	ldr	r3, [r2, #4]
 8002ff4:	2000      	movs	r0, #0
 8002ff6:	f423 0380 	bic.w	r3, r3, #4194304	; 0x400000
 8002ffa:	430b      	orrs	r3, r1
 8002ffc:	6053      	str	r3, [r2, #4]
 8002ffe:	e012      	b.n	8003026 <HAL_RCCEx_PeriphCLKConfig+0xa2>
 8003000:	2600      	movs	r6, #0
 8003002:	e7d3      	b.n	8002fac <HAL_RCCEx_PeriphCLKConfig+0x28>
 8003004:	683b      	ldr	r3, [r7, #0]
 8003006:	f443 7380 	orr.w	r3, r3, #256	; 0x100
 800300a:	603b      	str	r3, [r7, #0]
 800300c:	f7fe fcaa 	bl	8001964 <HAL_GetTick>
 8003010:	4680      	mov	r8, r0
 8003012:	683b      	ldr	r3, [r7, #0]
 8003014:	05d8      	lsls	r0, r3, #23
 8003016:	d4cd      	bmi.n	8002fb4 <HAL_RCCEx_PeriphCLKConfig+0x30>
 8003018:	f7fe fca4 	bl	8001964 <HAL_GetTick>
 800301c:	eba0 0008 	sub.w	r0, r0, r8
 8003020:	2864      	cmp	r0, #100	; 0x64
 8003022:	d9f6      	bls.n	8003012 <HAL_RCCEx_PeriphCLKConfig+0x8e>
 8003024:	2003      	movs	r0, #3
 8003026:	b002      	add	sp, #8
 8003028:	e8bd 81f0 	ldmia.w	sp!, {r4, r5, r6, r7, r8, pc}
 800302c:	f402 7240 	and.w	r2, r2, #768	; 0x300
 8003030:	429a      	cmp	r2, r3
 8003032:	d0c4      	beq.n	8002fbe <HAL_RCCEx_PeriphCLKConfig+0x3a>
 8003034:	2001      	movs	r0, #1
 8003036:	4a0f      	ldr	r2, [pc, #60]	; (8003074 <HAL_RCCEx_PeriphCLKConfig+0xf0>)
 8003038:	6a23      	ldr	r3, [r4, #32]
 800303a:	f8c2 0440 	str.w	r0, [r2, #1088]	; 0x440
 800303e:	2000      	movs	r0, #0
 8003040:	f423 7140 	bic.w	r1, r3, #768	; 0x300
 8003044:	f8c2 0440 	str.w	r0, [r2, #1088]	; 0x440
 8003048:	6221      	str	r1, [r4, #32]
 800304a:	07d9      	lsls	r1, r3, #31
 800304c:	d5b7      	bpl.n	8002fbe <HAL_RCCEx_PeriphCLKConfig+0x3a>
 800304e:	f7fe fc89 	bl	8001964 <HAL_GetTick>
 8003052:	f241 3888 	movw	r8, #5000	; 0x1388
 8003056:	4607      	mov	r7, r0
 8003058:	6a23      	ldr	r3, [r4, #32]
 800305a:	079a      	lsls	r2, r3, #30
 800305c:	d4af      	bmi.n	8002fbe <HAL_RCCEx_PeriphCLKConfig+0x3a>
 800305e:	f7fe fc81 	bl	8001964 <HAL_GetTick>
 8003062:	1bc0      	subs	r0, r0, r7
 8003064:	4540      	cmp	r0, r8
 8003066:	d9f7      	bls.n	8003058 <HAL_RCCEx_PeriphCLKConfig+0xd4>
 8003068:	e7dc      	b.n	8003024 <HAL_RCCEx_PeriphCLKConfig+0xa0>
 800306a:	bf00      	nop
 800306c:	40021000 	.word	0x40021000
 8003070:	40007000 	.word	0x40007000
 8003074:	42420000 	.word	0x42420000

08003078 <HAL_RCCEx_GetPeriphCLKFreq>:
 8003078:	2802      	cmp	r0, #2
 800307a:	b508      	push	{r3, lr}
 800307c:	d044      	beq.n	8003108 <HAL_RCCEx_GetPeriphCLKFreq+0x90>
 800307e:	2810      	cmp	r0, #16
 8003080:	d003      	beq.n	800308a <HAL_RCCEx_GetPeriphCLKFreq+0x12>
 8003082:	2801      	cmp	r0, #1
 8003084:	d022      	beq.n	80030cc <HAL_RCCEx_GetPeriphCLKFreq+0x54>
 8003086:	2000      	movs	r0, #0
 8003088:	e034      	b.n	80030f4 <HAL_RCCEx_GetPeriphCLKFreq+0x7c>
 800308a:	4b25      	ldr	r3, [pc, #148]	; (8003120 <HAL_RCCEx_GetPeriphCLKFreq+0xa8>)
 800308c:	685a      	ldr	r2, [r3, #4]
 800308e:	6818      	ldr	r0, [r3, #0]
 8003090:	f010 7080 	ands.w	r0, r0, #16777216	; 0x1000000
 8003094:	d02e      	beq.n	80030f4 <HAL_RCCEx_GetPeriphCLKFreq+0x7c>
 8003096:	f3c2 4183 	ubfx	r1, r2, #18, #4
 800309a:	4822      	ldr	r0, [pc, #136]	; (8003124 <HAL_RCCEx_GetPeriphCLKFreq+0xac>)
 800309c:	03d2      	lsls	r2, r2, #15
 800309e:	bf48      	it	mi
 80030a0:	685a      	ldrmi	r2, [r3, #4]
 80030a2:	5c40      	ldrb	r0, [r0, r1]
 80030a4:	bf41      	itttt	mi
 80030a6:	4920      	ldrmi	r1, [pc, #128]	; (8003128 <HAL_RCCEx_GetPeriphCLKFreq+0xb0>)
 80030a8:	f3c2 4240 	ubfxmi	r2, r2, #17, #1
 80030ac:	5c89      	ldrbmi	r1, [r1, r2]
 80030ae:	4a1f      	ldrmi	r2, [pc, #124]	; (800312c <HAL_RCCEx_GetPeriphCLKFreq+0xb4>)
 80030b0:	685b      	ldr	r3, [r3, #4]
 80030b2:	bf4c      	ite	mi
 80030b4:	fbb2 f2f1 	udivmi	r2, r2, r1
 80030b8:	4a1d      	ldrpl	r2, [pc, #116]	; (8003130 <HAL_RCCEx_GetPeriphCLKFreq+0xb8>)
 80030ba:	025b      	lsls	r3, r3, #9
 80030bc:	fb02 f000 	mul.w	r0, r2, r0
 80030c0:	d418      	bmi.n	80030f4 <HAL_RCCEx_GetPeriphCLKFreq+0x7c>
 80030c2:	2303      	movs	r3, #3
 80030c4:	0040      	lsls	r0, r0, #1
 80030c6:	fbb0 f0f3 	udiv	r0, r0, r3
 80030ca:	e013      	b.n	80030f4 <HAL_RCCEx_GetPeriphCLKFreq+0x7c>
 80030cc:	f240 3102 	movw	r1, #770	; 0x302
 80030d0:	4a13      	ldr	r2, [pc, #76]	; (8003120 <HAL_RCCEx_GetPeriphCLKFreq+0xa8>)
 80030d2:	6a13      	ldr	r3, [r2, #32]
 80030d4:	4019      	ands	r1, r3
 80030d6:	f5b1 7f81 	cmp.w	r1, #258	; 0x102
 80030da:	d01e      	beq.n	800311a <HAL_RCCEx_GetPeriphCLKFreq+0xa2>
 80030dc:	f403 7340 	and.w	r3, r3, #768	; 0x300
 80030e0:	f5b3 7f00 	cmp.w	r3, #512	; 0x200
 80030e4:	d107      	bne.n	80030f6 <HAL_RCCEx_GetPeriphCLKFreq+0x7e>
 80030e6:	f649 4340 	movw	r3, #40000	; 0x9c40
 80030ea:	6a50      	ldr	r0, [r2, #36]	; 0x24
 80030ec:	f010 0002 	ands.w	r0, r0, #2
 80030f0:	bf18      	it	ne
 80030f2:	4618      	movne	r0, r3
 80030f4:	bd08      	pop	{r3, pc}
 80030f6:	f5b3 7f40 	cmp.w	r3, #768	; 0x300
 80030fa:	d1c4      	bne.n	8003086 <HAL_RCCEx_GetPeriphCLKFreq+0xe>
 80030fc:	6810      	ldr	r0, [r2, #0]
 80030fe:	f24f 4324 	movw	r3, #62500	; 0xf424
 8003102:	f410 3000 	ands.w	r0, r0, #131072	; 0x20000
 8003106:	e7f3      	b.n	80030f0 <HAL_RCCEx_GetPeriphCLKFreq+0x78>
 8003108:	f7ff ff2c 	bl	8002f64 <HAL_RCC_GetPCLK2Freq>
 800310c:	4b04      	ldr	r3, [pc, #16]	; (8003120 <HAL_RCCEx_GetPeriphCLKFreq+0xa8>)
 800310e:	685b      	ldr	r3, [r3, #4]
 8003110:	f3c3 3381 	ubfx	r3, r3, #14, #2
 8003114:	3301      	adds	r3, #1
 8003116:	005b      	lsls	r3, r3, #1
 8003118:	e7d5      	b.n	80030c6 <HAL_RCCEx_GetPeriphCLKFreq+0x4e>
 800311a:	f44f 4000 	mov.w	r0, #32768	; 0x8000
 800311e:	e7e9      	b.n	80030f4 <HAL_RCCEx_GetPeriphCLKFreq+0x7c>
 8003120:	40021000 	.word	0x40021000
 8003124:	08003b35 	.word	0x08003b35
 8003128:	08003b45 	.word	0x08003b45
 800312c:	007a1200 	.word	0x007a1200
 8003130:	003d0900 	.word	0x003d0900

08003134 <TIM_OC1_SetConfig>:
 8003134:	6a03      	ldr	r3, [r0, #32]
 8003136:	6a02      	ldr	r2, [r0, #32]
 8003138:	b570      	push	{r4, r5, r6, lr}
 800313a:	f022 0201 	bic.w	r2, r2, #1
 800313e:	6202      	str	r2, [r0, #32]
 8003140:	6844      	ldr	r4, [r0, #4]
 8003142:	6982      	ldr	r2, [r0, #24]
 8003144:	680d      	ldr	r5, [r1, #0]
 8003146:	f022 0273 	bic.w	r2, r2, #115	; 0x73
 800314a:	432a      	orrs	r2, r5
 800314c:	688d      	ldr	r5, [r1, #8]
 800314e:	f023 0302 	bic.w	r3, r3, #2
 8003152:	432b      	orrs	r3, r5
 8003154:	4d0a      	ldr	r5, [pc, #40]	; (8003180 <TIM_OC1_SetConfig+0x4c>)
 8003156:	42a8      	cmp	r0, r5
 8003158:	d10b      	bne.n	8003172 <TIM_OC1_SetConfig+0x3e>
 800315a:	68cd      	ldr	r5, [r1, #12]
 800315c:	f023 0308 	bic.w	r3, r3, #8
 8003160:	432b      	orrs	r3, r5
 8003162:	f424 7440 	bic.w	r4, r4, #768	; 0x300
 8003166:	e9d1 5605 	ldrd	r5, r6, [r1, #20]
 800316a:	4335      	orrs	r5, r6
 800316c:	f023 0304 	bic.w	r3, r3, #4
 8003170:	432c      	orrs	r4, r5
 8003172:	6044      	str	r4, [r0, #4]
 8003174:	6182      	str	r2, [r0, #24]
 8003176:	684a      	ldr	r2, [r1, #4]
 8003178:	6342      	str	r2, [r0, #52]	; 0x34
 800317a:	6203      	str	r3, [r0, #32]
 800317c:	bd70      	pop	{r4, r5, r6, pc}
 800317e:	bf00      	nop
 8003180:	40012c00 	.word	0x40012c00

08003184 <TIM_OC3_SetConfig>:
 8003184:	6a03      	ldr	r3, [r0, #32]
 8003186:	6a02      	ldr	r2, [r0, #32]
 8003188:	b570      	push	{r4, r5, r6, lr}
 800318a:	f422 7280 	bic.w	r2, r2, #256	; 0x100
 800318e:	6202      	str	r2, [r0, #32]
 8003190:	6844      	ldr	r4, [r0, #4]
 8003192:	69c2      	ldr	r2, [r0, #28]
 8003194:	680d      	ldr	r5, [r1, #0]
 8003196:	f022 0273 	bic.w	r2, r2, #115	; 0x73
 800319a:	432a      	orrs	r2, r5
 800319c:	688d      	ldr	r5, [r1, #8]
 800319e:	f423 7300 	bic.w	r3, r3, #512	; 0x200
 80031a2:	ea43 2305 	orr.w	r3, r3, r5, lsl #8
 80031a6:	4d0b      	ldr	r5, [pc, #44]	; (80031d4 <TIM_OC3_SetConfig+0x50>)
 80031a8:	42a8      	cmp	r0, r5
 80031aa:	d10d      	bne.n	80031c8 <TIM_OC3_SetConfig+0x44>
 80031ac:	68cd      	ldr	r5, [r1, #12]
 80031ae:	f423 6300 	bic.w	r3, r3, #2048	; 0x800
 80031b2:	ea43 2305 	orr.w	r3, r3, r5, lsl #8
 80031b6:	f424 5440 	bic.w	r4, r4, #12288	; 0x3000
 80031ba:	e9d1 5605 	ldrd	r5, r6, [r1, #20]
 80031be:	4335      	orrs	r5, r6
 80031c0:	f423 6380 	bic.w	r3, r3, #1024	; 0x400
 80031c4:	ea44 1405 	orr.w	r4, r4, r5, lsl #4
 80031c8:	6044      	str	r4, [r0, #4]
 80031ca:	61c2      	str	r2, [r0, #28]
 80031cc:	684a      	ldr	r2, [r1, #4]
 80031ce:	63c2      	str	r2, [r0, #60]	; 0x3c
 80031d0:	6203      	str	r3, [r0, #32]
 80031d2:	bd70      	pop	{r4, r5, r6, pc}
 80031d4:	40012c00 	.word	0x40012c00

080031d8 <TIM_OC4_SetConfig>:
 80031d8:	6a03      	ldr	r3, [r0, #32]
 80031da:	6a02      	ldr	r2, [r0, #32]
 80031dc:	b530      	push	{r4, r5, lr}
 80031de:	f422 5280 	bic.w	r2, r2, #4096	; 0x1000
 80031e2:	6202      	str	r2, [r0, #32]
 80031e4:	6844      	ldr	r4, [r0, #4]
 80031e6:	69c2      	ldr	r2, [r0, #28]
 80031e8:	680d      	ldr	r5, [r1, #0]
 80031ea:	f422 42e6 	bic.w	r2, r2, #29440	; 0x7300
 80031ee:	ea42 2205 	orr.w	r2, r2, r5, lsl #8
 80031f2:	688d      	ldr	r5, [r1, #8]
 80031f4:	f423 5300 	bic.w	r3, r3, #8192	; 0x2000
 80031f8:	ea43 3305 	orr.w	r3, r3, r5, lsl #12
 80031fc:	4d06      	ldr	r5, [pc, #24]	; (8003218 <TIM_OC4_SetConfig+0x40>)
 80031fe:	42a8      	cmp	r0, r5
 8003200:	bf02      	ittt	eq
 8003202:	694d      	ldreq	r5, [r1, #20]
 8003204:	f424 4480 	biceq.w	r4, r4, #16384	; 0x4000
 8003208:	ea44 1485 	orreq.w	r4, r4, r5, lsl #6
 800320c:	6044      	str	r4, [r0, #4]
 800320e:	61c2      	str	r2, [r0, #28]
 8003210:	684a      	ldr	r2, [r1, #4]
 8003212:	6402      	str	r2, [r0, #64]	; 0x40
 8003214:	6203      	str	r3, [r0, #32]
 8003216:	bd30      	pop	{r4, r5, pc}
 8003218:	40012c00 	.word	0x40012c00

0800321c <HAL_TIM_Base_Start_IT>:
 800321c:	f890 303d 	ldrb.w	r3, [r0, #61]	; 0x3d
 8003220:	2b01      	cmp	r3, #1
 8003222:	d11c      	bne.n	800325e <HAL_TIM_Base_Start_IT+0x42>
 8003224:	2302      	movs	r3, #2
 8003226:	f880 303d 	strb.w	r3, [r0, #61]	; 0x3d
 800322a:	6803      	ldr	r3, [r0, #0]
 800322c:	68da      	ldr	r2, [r3, #12]
 800322e:	f042 0201 	orr.w	r2, r2, #1
 8003232:	60da      	str	r2, [r3, #12]
 8003234:	4a0b      	ldr	r2, [pc, #44]	; (8003264 <HAL_TIM_Base_Start_IT+0x48>)
 8003236:	4293      	cmp	r3, r2
 8003238:	d006      	beq.n	8003248 <HAL_TIM_Base_Start_IT+0x2c>
 800323a:	f1b3 4f80 	cmp.w	r3, #1073741824	; 0x40000000
 800323e:	d003      	beq.n	8003248 <HAL_TIM_Base_Start_IT+0x2c>
 8003240:	f5a2 3294 	sub.w	r2, r2, #75776	; 0x12800
 8003244:	4293      	cmp	r3, r2
 8003246:	d104      	bne.n	8003252 <HAL_TIM_Base_Start_IT+0x36>
 8003248:	689a      	ldr	r2, [r3, #8]
 800324a:	f002 0207 	and.w	r2, r2, #7
 800324e:	2a06      	cmp	r2, #6
 8003250:	d003      	beq.n	800325a <HAL_TIM_Base_Start_IT+0x3e>
 8003252:	681a      	ldr	r2, [r3, #0]
 8003254:	f042 0201 	orr.w	r2, r2, #1
 8003258:	601a      	str	r2, [r3, #0]
 800325a:	2000      	movs	r0, #0
 800325c:	4770      	bx	lr
 800325e:	2001      	movs	r0, #1
 8003260:	4770      	bx	lr
 8003262:	bf00      	nop
 8003264:	40012c00 	.word	0x40012c00

08003268 <HAL_TIM_PWM_MspInit>:
 8003268:	4770      	bx	lr

0800326a <HAL_TIM_OC_DelayElapsedCallback>:
 800326a:	4770      	bx	lr

0800326c <HAL_TIM_IC_CaptureCallback>:
 800326c:	4770      	bx	lr

0800326e <HAL_TIM_PWM_PulseFinishedCallback>:
 800326e:	4770      	bx	lr

08003270 <HAL_TIM_TriggerCallback>:
 8003270:	4770      	bx	lr

08003272 <HAL_TIM_IRQHandler>:
 8003272:	6803      	ldr	r3, [r0, #0]
 8003274:	b510      	push	{r4, lr}
 8003276:	691a      	ldr	r2, [r3, #16]
 8003278:	4604      	mov	r4, r0
 800327a:	0791      	lsls	r1, r2, #30
 800327c:	d50e      	bpl.n	800329c <HAL_TIM_IRQHandler+0x2a>
 800327e:	68da      	ldr	r2, [r3, #12]
 8003280:	0792      	lsls	r2, r2, #30
 8003282:	d50b      	bpl.n	800329c <HAL_TIM_IRQHandler+0x2a>
 8003284:	f06f 0202 	mvn.w	r2, #2
 8003288:	611a      	str	r2, [r3, #16]
 800328a:	2201      	movs	r2, #1
 800328c:	7702      	strb	r2, [r0, #28]
 800328e:	699b      	ldr	r3, [r3, #24]
 8003290:	079b      	lsls	r3, r3, #30
 8003292:	d077      	beq.n	8003384 <HAL_TIM_IRQHandler+0x112>
 8003294:	f7ff ffea 	bl	800326c <HAL_TIM_IC_CaptureCallback>
 8003298:	2300      	movs	r3, #0
 800329a:	7723      	strb	r3, [r4, #28]
 800329c:	6823      	ldr	r3, [r4, #0]
 800329e:	691a      	ldr	r2, [r3, #16]
 80032a0:	0750      	lsls	r0, r2, #29
 80032a2:	d510      	bpl.n	80032c6 <HAL_TIM_IRQHandler+0x54>
 80032a4:	68da      	ldr	r2, [r3, #12]
 80032a6:	0751      	lsls	r1, r2, #29
 80032a8:	d50d      	bpl.n	80032c6 <HAL_TIM_IRQHandler+0x54>
 80032aa:	f06f 0204 	mvn.w	r2, #4
 80032ae:	611a      	str	r2, [r3, #16]
 80032b0:	2202      	movs	r2, #2
 80032b2:	7722      	strb	r2, [r4, #28]
 80032b4:	699b      	ldr	r3, [r3, #24]
 80032b6:	4620      	mov	r0, r4
 80032b8:	f413 7f40 	tst.w	r3, #768	; 0x300
 80032bc:	d068      	beq.n	8003390 <HAL_TIM_IRQHandler+0x11e>
 80032be:	f7ff ffd5 	bl	800326c <HAL_TIM_IC_CaptureCallback>
 80032c2:	2300      	movs	r3, #0
 80032c4:	7723      	strb	r3, [r4, #28]
 80032c6:	6823      	ldr	r3, [r4, #0]
 80032c8:	691a      	ldr	r2, [r3, #16]
 80032ca:	0712      	lsls	r2, r2, #28
 80032cc:	d50f      	bpl.n	80032ee <HAL_TIM_IRQHandler+0x7c>
 80032ce:	68da      	ldr	r2, [r3, #12]
 80032d0:	0710      	lsls	r0, r2, #28
 80032d2:	d50c      	bpl.n	80032ee <HAL_TIM_IRQHandler+0x7c>
 80032d4:	f06f 0208 	mvn.w	r2, #8
 80032d8:	611a      	str	r2, [r3, #16]
 80032da:	2204      	movs	r2, #4
 80032dc:	7722      	strb	r2, [r4, #28]
 80032de:	69db      	ldr	r3, [r3, #28]
 80032e0:	4620      	mov	r0, r4
 80032e2:	0799      	lsls	r1, r3, #30
 80032e4:	d05a      	beq.n	800339c <HAL_TIM_IRQHandler+0x12a>
 80032e6:	f7ff ffc1 	bl	800326c <HAL_TIM_IC_CaptureCallback>
 80032ea:	2300      	movs	r3, #0
 80032ec:	7723      	strb	r3, [r4, #28]
 80032ee:	6823      	ldr	r3, [r4, #0]
 80032f0:	691a      	ldr	r2, [r3, #16]
 80032f2:	06d2      	lsls	r2, r2, #27
 80032f4:	d510      	bpl.n	8003318 <HAL_TIM_IRQHandler+0xa6>
 80032f6:	68da      	ldr	r2, [r3, #12]
 80032f8:	06d0      	lsls	r0, r2, #27
 80032fa:	d50d      	bpl.n	8003318 <HAL_TIM_IRQHandler+0xa6>
 80032fc:	f06f 0210 	mvn.w	r2, #16
 8003300:	611a      	str	r2, [r3, #16]
 8003302:	2208      	movs	r2, #8
 8003304:	7722      	strb	r2, [r4, #28]
 8003306:	69db      	ldr	r3, [r3, #28]
 8003308:	4620      	mov	r0, r4
 800330a:	f413 7f40 	tst.w	r3, #768	; 0x300
 800330e:	d04b      	beq.n	80033a8 <HAL_TIM_IRQHandler+0x136>
 8003310:	f7ff ffac 	bl	800326c <HAL_TIM_IC_CaptureCallback>
 8003314:	2300      	movs	r3, #0
 8003316:	7723      	strb	r3, [r4, #28]
 8003318:	6823      	ldr	r3, [r4, #0]
 800331a:	691a      	ldr	r2, [r3, #16]
 800331c:	07d1      	lsls	r1, r2, #31
 800331e:	d508      	bpl.n	8003332 <HAL_TIM_IRQHandler+0xc0>
 8003320:	68da      	ldr	r2, [r3, #12]
 8003322:	07d2      	lsls	r2, r2, #31
 8003324:	d505      	bpl.n	8003332 <HAL_TIM_IRQHandler+0xc0>
 8003326:	f06f 0201 	mvn.w	r2, #1
 800332a:	4620      	mov	r0, r4
 800332c:	611a      	str	r2, [r3, #16]
 800332e:	f7fe f81d 	bl	800136c <HAL_TIM_PeriodElapsedCallback>
 8003332:	6823      	ldr	r3, [r4, #0]
 8003334:	691a      	ldr	r2, [r3, #16]
 8003336:	0610      	lsls	r0, r2, #24
 8003338:	d508      	bpl.n	800334c <HAL_TIM_IRQHandler+0xda>
 800333a:	68da      	ldr	r2, [r3, #12]
 800333c:	0611      	lsls	r1, r2, #24
 800333e:	d505      	bpl.n	800334c <HAL_TIM_IRQHandler+0xda>
 8003340:	f06f 0280 	mvn.w	r2, #128	; 0x80
 8003344:	4620      	mov	r0, r4
 8003346:	611a      	str	r2, [r3, #16]
 8003348:	f000 faa7 	bl	800389a <HAL_TIMEx_BreakCallback>
 800334c:	6823      	ldr	r3, [r4, #0]
 800334e:	691a      	ldr	r2, [r3, #16]
 8003350:	0652      	lsls	r2, r2, #25
 8003352:	d508      	bpl.n	8003366 <HAL_TIM_IRQHandler+0xf4>
 8003354:	68da      	ldr	r2, [r3, #12]
 8003356:	0650      	lsls	r0, r2, #25
 8003358:	d505      	bpl.n	8003366 <HAL_TIM_IRQHandler+0xf4>
 800335a:	f06f 0240 	mvn.w	r2, #64	; 0x40
 800335e:	4620      	mov	r0, r4
 8003360:	611a      	str	r2, [r3, #16]
 8003362:	f7ff ff85 	bl	8003270 <HAL_TIM_TriggerCallback>
 8003366:	6823      	ldr	r3, [r4, #0]
 8003368:	691a      	ldr	r2, [r3, #16]
 800336a:	0691      	lsls	r1, r2, #26
 800336c:	d522      	bpl.n	80033b4 <HAL_TIM_IRQHandler+0x142>
 800336e:	68da      	ldr	r2, [r3, #12]
 8003370:	0692      	lsls	r2, r2, #26
 8003372:	d51f      	bpl.n	80033b4 <HAL_TIM_IRQHandler+0x142>
 8003374:	f06f 0220 	mvn.w	r2, #32
 8003378:	4620      	mov	r0, r4
 800337a:	e8bd 4010 	ldmia.w	sp!, {r4, lr}
 800337e:	611a      	str	r2, [r3, #16]
 8003380:	f000 ba8a 	b.w	8003898 <HAL_TIMEx_CommutCallback>
 8003384:	f7ff ff71 	bl	800326a <HAL_TIM_OC_DelayElapsedCallback>
 8003388:	4620      	mov	r0, r4
 800338a:	f7ff ff70 	bl	800326e <HAL_TIM_PWM_PulseFinishedCallback>
 800338e:	e783      	b.n	8003298 <HAL_TIM_IRQHandler+0x26>
 8003390:	f7ff ff6b 	bl	800326a <HAL_TIM_OC_DelayElapsedCallback>
 8003394:	4620      	mov	r0, r4
 8003396:	f7ff ff6a 	bl	800326e <HAL_TIM_PWM_PulseFinishedCallback>
 800339a:	e792      	b.n	80032c2 <HAL_TIM_IRQHandler+0x50>
 800339c:	f7ff ff65 	bl	800326a <HAL_TIM_OC_DelayElapsedCallback>
 80033a0:	4620      	mov	r0, r4
 80033a2:	f7ff ff64 	bl	800326e <HAL_TIM_PWM_PulseFinishedCallback>
 80033a6:	e7a0      	b.n	80032ea <HAL_TIM_IRQHandler+0x78>
 80033a8:	f7ff ff5f 	bl	800326a <HAL_TIM_OC_DelayElapsedCallback>
 80033ac:	4620      	mov	r0, r4
 80033ae:	f7ff ff5e 	bl	800326e <HAL_TIM_PWM_PulseFinishedCallback>
 80033b2:	e7af      	b.n	8003314 <HAL_TIM_IRQHandler+0xa2>
 80033b4:	bd10      	pop	{r4, pc}
	...

080033b8 <TIM_Base_SetConfig>:
 80033b8:	4a16      	ldr	r2, [pc, #88]	; (8003414 <TIM_Base_SetConfig+0x5c>)
 80033ba:	b510      	push	{r4, lr}
 80033bc:	4290      	cmp	r0, r2
 80033be:	6803      	ldr	r3, [r0, #0]
 80033c0:	d005      	beq.n	80033ce <TIM_Base_SetConfig+0x16>
 80033c2:	f1b0 4f80 	cmp.w	r0, #1073741824	; 0x40000000
 80033c6:	d002      	beq.n	80033ce <TIM_Base_SetConfig+0x16>
 80033c8:	4c13      	ldr	r4, [pc, #76]	; (8003418 <TIM_Base_SetConfig+0x60>)
 80033ca:	42a0      	cmp	r0, r4
 80033cc:	d110      	bne.n	80033f0 <TIM_Base_SetConfig+0x38>
 80033ce:	684c      	ldr	r4, [r1, #4]
 80033d0:	f023 0370 	bic.w	r3, r3, #112	; 0x70
 80033d4:	4290      	cmp	r0, r2
 80033d6:	ea43 0304 	orr.w	r3, r3, r4
 80033da:	d005      	beq.n	80033e8 <TIM_Base_SetConfig+0x30>
 80033dc:	f1b0 4f80 	cmp.w	r0, #1073741824	; 0x40000000
 80033e0:	d002      	beq.n	80033e8 <TIM_Base_SetConfig+0x30>
 80033e2:	4a0d      	ldr	r2, [pc, #52]	; (8003418 <TIM_Base_SetConfig+0x60>)
 80033e4:	4290      	cmp	r0, r2
 80033e6:	d103      	bne.n	80033f0 <TIM_Base_SetConfig+0x38>
 80033e8:	68ca      	ldr	r2, [r1, #12]
 80033ea:	f423 7340 	bic.w	r3, r3, #768	; 0x300
 80033ee:	4313      	orrs	r3, r2
 80033f0:	694a      	ldr	r2, [r1, #20]
 80033f2:	f023 0380 	bic.w	r3, r3, #128	; 0x80
 80033f6:	4313      	orrs	r3, r2
 80033f8:	6003      	str	r3, [r0, #0]
 80033fa:	688b      	ldr	r3, [r1, #8]
 80033fc:	62c3      	str	r3, [r0, #44]	; 0x2c
 80033fe:	680b      	ldr	r3, [r1, #0]
 8003400:	6283      	str	r3, [r0, #40]	; 0x28
 8003402:	4b04      	ldr	r3, [pc, #16]	; (8003414 <TIM_Base_SetConfig+0x5c>)
 8003404:	4298      	cmp	r0, r3
 8003406:	bf04      	itt	eq
 8003408:	690b      	ldreq	r3, [r1, #16]
 800340a:	6303      	streq	r3, [r0, #48]	; 0x30
 800340c:	2301      	movs	r3, #1
 800340e:	6143      	str	r3, [r0, #20]
 8003410:	bd10      	pop	{r4, pc}
 8003412:	bf00      	nop
 8003414:	40012c00 	.word	0x40012c00
 8003418:	40000400 	.word	0x40000400

0800341c <HAL_TIM_Base_Init>:
 800341c:	b510      	push	{r4, lr}
 800341e:	4604      	mov	r4, r0
 8003420:	b330      	cbz	r0, 8003470 <HAL_TIM_Base_Init+0x54>
 8003422:	f890 303d 	ldrb.w	r3, [r0, #61]	; 0x3d
 8003426:	f003 02ff 	and.w	r2, r3, #255	; 0xff
 800342a:	b91b      	cbnz	r3, 8003434 <HAL_TIM_Base_Init+0x18>
 800342c:	f880 203c 	strb.w	r2, [r0, #60]	; 0x3c
 8003430:	f7fe f96e 	bl	8001710 <HAL_TIM_Base_MspInit>
 8003434:	2302      	movs	r3, #2
 8003436:	6820      	ldr	r0, [r4, #0]
 8003438:	f884 303d 	strb.w	r3, [r4, #61]	; 0x3d
 800343c:	1d21      	adds	r1, r4, #4
 800343e:	f7ff ffbb 	bl	80033b8 <TIM_Base_SetConfig>
 8003442:	2301      	movs	r3, #1
 8003444:	2000      	movs	r0, #0
 8003446:	f884 3046 	strb.w	r3, [r4, #70]	; 0x46
 800344a:	f884 303e 	strb.w	r3, [r4, #62]	; 0x3e
 800344e:	f884 303f 	strb.w	r3, [r4, #63]	; 0x3f
 8003452:	f884 3040 	strb.w	r3, [r4, #64]	; 0x40
 8003456:	f884 3041 	strb.w	r3, [r4, #65]	; 0x41
 800345a:	f884 3042 	strb.w	r3, [r4, #66]	; 0x42
 800345e:	f884 3043 	strb.w	r3, [r4, #67]	; 0x43
 8003462:	f884 3044 	strb.w	r3, [r4, #68]	; 0x44
 8003466:	f884 3045 	strb.w	r3, [r4, #69]	; 0x45
 800346a:	f884 303d 	strb.w	r3, [r4, #61]	; 0x3d
 800346e:	bd10      	pop	{r4, pc}
 8003470:	2001      	movs	r0, #1
 8003472:	e7fc      	b.n	800346e <HAL_TIM_Base_Init+0x52>

08003474 <HAL_TIM_PWM_Init>:
 8003474:	b510      	push	{r4, lr}
 8003476:	4604      	mov	r4, r0
 8003478:	b330      	cbz	r0, 80034c8 <HAL_TIM_PWM_Init+0x54>
 800347a:	f890 303d 	ldrb.w	r3, [r0, #61]	; 0x3d
 800347e:	f003 02ff 	and.w	r2, r3, #255	; 0xff
 8003482:	b91b      	cbnz	r3, 800348c <HAL_TIM_PWM_Init+0x18>
 8003484:	f880 203c 	strb.w	r2, [r0, #60]	; 0x3c
 8003488:	f7ff feee 	bl	8003268 <HAL_TIM_PWM_MspInit>
 800348c:	2302      	movs	r3, #2
 800348e:	6820      	ldr	r0, [r4, #0]
 8003490:	f884 303d 	strb.w	r3, [r4, #61]	; 0x3d
 8003494:	1d21      	adds	r1, r4, #4
 8003496:	f7ff ff8f 	bl	80033b8 <TIM_Base_SetConfig>
 800349a:	2301      	movs	r3, #1
 800349c:	2000      	movs	r0, #0
 800349e:	f884 3046 	strb.w	r3, [r4, #70]	; 0x46
 80034a2:	f884 303e 	strb.w	r3, [r4, #62]	; 0x3e
 80034a6:	f884 303f 	strb.w	r3, [r4, #63]	; 0x3f
 80034aa:	f884 3040 	strb.w	r3, [r4, #64]	; 0x40
 80034ae:	f884 3041 	strb.w	r3, [r4, #65]	; 0x41
 80034b2:	f884 3042 	strb.w	r3, [r4, #66]	; 0x42
 80034b6:	f884 3043 	strb.w	r3, [r4, #67]	; 0x43
 80034ba:	f884 3044 	strb.w	r3, [r4, #68]	; 0x44
 80034be:	f884 3045 	strb.w	r3, [r4, #69]	; 0x45
 80034c2:	f884 303d 	strb.w	r3, [r4, #61]	; 0x3d
 80034c6:	bd10      	pop	{r4, pc}
 80034c8:	2001      	movs	r0, #1
 80034ca:	e7fc      	b.n	80034c6 <HAL_TIM_PWM_Init+0x52>

080034cc <TIM_OC2_SetConfig>:
 80034cc:	6a03      	ldr	r3, [r0, #32]
 80034ce:	6a02      	ldr	r2, [r0, #32]
 80034d0:	b570      	push	{r4, r5, r6, lr}
 80034d2:	f022 0210 	bic.w	r2, r2, #16
 80034d6:	6202      	str	r2, [r0, #32]
 80034d8:	6844      	ldr	r4, [r0, #4]
 80034da:	6982      	ldr	r2, [r0, #24]
 80034dc:	680d      	ldr	r5, [r1, #0]
 80034de:	f422 42e6 	bic.w	r2, r2, #29440	; 0x7300
 80034e2:	ea42 2205 	orr.w	r2, r2, r5, lsl #8
 80034e6:	688d      	ldr	r5, [r1, #8]
 80034e8:	f023 0320 	bic.w	r3, r3, #32
 80034ec:	ea43 1305 	orr.w	r3, r3, r5, lsl #4
 80034f0:	4d0b      	ldr	r5, [pc, #44]	; (8003520 <TIM_OC2_SetConfig+0x54>)
 80034f2:	42a8      	cmp	r0, r5
 80034f4:	d10d      	bne.n	8003512 <TIM_OC2_SetConfig+0x46>
 80034f6:	68cd      	ldr	r5, [r1, #12]
 80034f8:	f023 0380 	bic.w	r3, r3, #128	; 0x80
 80034fc:	ea43 1305 	orr.w	r3, r3, r5, lsl #4
 8003500:	f424 6440 	bic.w	r4, r4, #3072	; 0xc00
 8003504:	e9d1 5605 	ldrd	r5, r6, [r1, #20]
 8003508:	4335      	orrs	r5, r6
 800350a:	f023 0340 	bic.w	r3, r3, #64	; 0x40
 800350e:	ea44 0485 	orr.w	r4, r4, r5, lsl #2
 8003512:	6044      	str	r4, [r0, #4]
 8003514:	6182      	str	r2, [r0, #24]
 8003516:	684a      	ldr	r2, [r1, #4]
 8003518:	6382      	str	r2, [r0, #56]	; 0x38
 800351a:	6203      	str	r3, [r0, #32]
 800351c:	bd70      	pop	{r4, r5, r6, pc}
 800351e:	bf00      	nop
 8003520:	40012c00 	.word	0x40012c00

08003524 <HAL_TIM_PWM_ConfigChannel>:
 8003524:	b570      	push	{r4, r5, r6, lr}
 8003526:	f890 303c 	ldrb.w	r3, [r0, #60]	; 0x3c
 800352a:	4605      	mov	r5, r0
 800352c:	2b01      	cmp	r3, #1
 800352e:	d050      	beq.n	80035d2 <HAL_TIM_PWM_ConfigChannel+0xae>
 8003530:	2301      	movs	r3, #1
 8003532:	2a08      	cmp	r2, #8
 8003534:	f880 303c 	strb.w	r3, [r0, #60]	; 0x3c
 8003538:	d03b      	beq.n	80035b2 <HAL_TIM_PWM_ConfigChannel+0x8e>
 800353a:	d807      	bhi.n	800354c <HAL_TIM_PWM_ConfigChannel+0x28>
 800353c:	b1c2      	cbz	r2, 8003570 <HAL_TIM_PWM_ConfigChannel+0x4c>
 800353e:	2a04      	cmp	r2, #4
 8003540:	d027      	beq.n	8003592 <HAL_TIM_PWM_ConfigChannel+0x6e>
 8003542:	4618      	mov	r0, r3
 8003544:	2300      	movs	r3, #0
 8003546:	f885 303c 	strb.w	r3, [r5, #60]	; 0x3c
 800354a:	bd70      	pop	{r4, r5, r6, pc}
 800354c:	2a0c      	cmp	r2, #12
 800354e:	d1f8      	bne.n	8003542 <HAL_TIM_PWM_ConfigChannel+0x1e>
 8003550:	6800      	ldr	r0, [r0, #0]
 8003552:	f7ff fe41 	bl	80031d8 <TIM_OC4_SetConfig>
 8003556:	69c3      	ldr	r3, [r0, #28]
 8003558:	690a      	ldr	r2, [r1, #16]
 800355a:	f443 6300 	orr.w	r3, r3, #2048	; 0x800
 800355e:	61c3      	str	r3, [r0, #28]
 8003560:	69c3      	ldr	r3, [r0, #28]
 8003562:	f423 6380 	bic.w	r3, r3, #1024	; 0x400
 8003566:	61c3      	str	r3, [r0, #28]
 8003568:	69c3      	ldr	r3, [r0, #28]
 800356a:	ea43 2302 	orr.w	r3, r3, r2, lsl #8
 800356e:	e02e      	b.n	80035ce <HAL_TIM_PWM_ConfigChannel+0xaa>
 8003570:	6800      	ldr	r0, [r0, #0]
 8003572:	f7ff fddf 	bl	8003134 <TIM_OC1_SetConfig>
 8003576:	6983      	ldr	r3, [r0, #24]
 8003578:	690a      	ldr	r2, [r1, #16]
 800357a:	f043 0308 	orr.w	r3, r3, #8
 800357e:	6183      	str	r3, [r0, #24]
 8003580:	6983      	ldr	r3, [r0, #24]
 8003582:	f023 0304 	bic.w	r3, r3, #4
 8003586:	6183      	str	r3, [r0, #24]
 8003588:	6983      	ldr	r3, [r0, #24]
 800358a:	4313      	orrs	r3, r2
 800358c:	6183      	str	r3, [r0, #24]
 800358e:	2000      	movs	r0, #0
 8003590:	e7d8      	b.n	8003544 <HAL_TIM_PWM_ConfigChannel+0x20>
 8003592:	6800      	ldr	r0, [r0, #0]
 8003594:	f7ff ff9a 	bl	80034cc <TIM_OC2_SetConfig>
 8003598:	6983      	ldr	r3, [r0, #24]
 800359a:	690a      	ldr	r2, [r1, #16]
 800359c:	f443 6300 	orr.w	r3, r3, #2048	; 0x800
 80035a0:	6183      	str	r3, [r0, #24]
 80035a2:	6983      	ldr	r3, [r0, #24]
 80035a4:	f423 6380 	bic.w	r3, r3, #1024	; 0x400
 80035a8:	6183      	str	r3, [r0, #24]
 80035aa:	6983      	ldr	r3, [r0, #24]
 80035ac:	ea43 2302 	orr.w	r3, r3, r2, lsl #8
 80035b0:	e7ec      	b.n	800358c <HAL_TIM_PWM_ConfigChannel+0x68>
 80035b2:	6800      	ldr	r0, [r0, #0]
 80035b4:	f7ff fde6 	bl	8003184 <TIM_OC3_SetConfig>
 80035b8:	69c3      	ldr	r3, [r0, #28]
 80035ba:	690a      	ldr	r2, [r1, #16]
 80035bc:	f043 0308 	orr.w	r3, r3, #8
 80035c0:	61c3      	str	r3, [r0, #28]
 80035c2:	69c3      	ldr	r3, [r0, #28]
 80035c4:	f023 0304 	bic.w	r3, r3, #4
 80035c8:	61c3      	str	r3, [r0, #28]
 80035ca:	69c3      	ldr	r3, [r0, #28]
 80035cc:	4313      	orrs	r3, r2
 80035ce:	61c3      	str	r3, [r0, #28]
 80035d0:	e7dd      	b.n	800358e <HAL_TIM_PWM_ConfigChannel+0x6a>
 80035d2:	2002      	movs	r0, #2
 80035d4:	e7b9      	b.n	800354a <HAL_TIM_PWM_ConfigChannel+0x26>

080035d6 <TIM_ETR_SetConfig>:
 80035d6:	b510      	push	{r4, lr}
 80035d8:	6884      	ldr	r4, [r0, #8]
 80035da:	430a      	orrs	r2, r1
 80035dc:	f424 447f 	bic.w	r4, r4, #65280	; 0xff00
 80035e0:	ea42 2203 	orr.w	r2, r2, r3, lsl #8
 80035e4:	4322      	orrs	r2, r4
 80035e6:	6082      	str	r2, [r0, #8]
 80035e8:	bd10      	pop	{r4, pc}

080035ea <HAL_TIM_ConfigClockSource>:
 80035ea:	b538      	push	{r3, r4, r5, lr}
 80035ec:	f890 303c 	ldrb.w	r3, [r0, #60]	; 0x3c
 80035f0:	4604      	mov	r4, r0
 80035f2:	2b01      	cmp	r3, #1
 80035f4:	f04f 0002 	mov.w	r0, #2
 80035f8:	f000 808e 	beq.w	8003718 <HAL_TIM_ConfigClockSource+0x12e>
 80035fc:	2201      	movs	r2, #1
 80035fe:	f884 003d 	strb.w	r0, [r4, #61]	; 0x3d
 8003602:	6820      	ldr	r0, [r4, #0]
 8003604:	f884 203c 	strb.w	r2, [r4, #60]	; 0x3c
 8003608:	6883      	ldr	r3, [r0, #8]
 800360a:	f423 437f 	bic.w	r3, r3, #65280	; 0xff00
 800360e:	f023 0377 	bic.w	r3, r3, #119	; 0x77
 8003612:	6083      	str	r3, [r0, #8]
 8003614:	680b      	ldr	r3, [r1, #0]
 8003616:	2b60      	cmp	r3, #96	; 0x60
 8003618:	d04f      	beq.n	80036ba <HAL_TIM_ConfigClockSource+0xd0>
 800361a:	d832      	bhi.n	8003682 <HAL_TIM_ConfigClockSource+0x98>
 800361c:	2b40      	cmp	r3, #64	; 0x40
 800361e:	d064      	beq.n	80036ea <HAL_TIM_ConfigClockSource+0x100>
 8003620:	d816      	bhi.n	8003650 <HAL_TIM_ConfigClockSource+0x66>
 8003622:	2b20      	cmp	r3, #32
 8003624:	d00d      	beq.n	8003642 <HAL_TIM_ConfigClockSource+0x58>
 8003626:	d80a      	bhi.n	800363e <HAL_TIM_ConfigClockSource+0x54>
 8003628:	f033 0110 	bics.w	r1, r3, #16
 800362c:	d009      	beq.n	8003642 <HAL_TIM_ConfigClockSource+0x58>
 800362e:	2301      	movs	r3, #1
 8003630:	f884 303d 	strb.w	r3, [r4, #61]	; 0x3d
 8003634:	2300      	movs	r3, #0
 8003636:	f884 303c 	strb.w	r3, [r4, #60]	; 0x3c
 800363a:	4610      	mov	r0, r2
 800363c:	bd38      	pop	{r3, r4, r5, pc}
 800363e:	2b30      	cmp	r3, #48	; 0x30
 8003640:	d1f5      	bne.n	800362e <HAL_TIM_ConfigClockSource+0x44>
 8003642:	6882      	ldr	r2, [r0, #8]
 8003644:	f022 0270 	bic.w	r2, r2, #112	; 0x70
 8003648:	4313      	orrs	r3, r2
 800364a:	f043 0307 	orr.w	r3, r3, #7
 800364e:	e028      	b.n	80036a2 <HAL_TIM_ConfigClockSource+0xb8>
 8003650:	2b50      	cmp	r3, #80	; 0x50
 8003652:	d1ec      	bne.n	800362e <HAL_TIM_ConfigClockSource+0x44>
 8003654:	684a      	ldr	r2, [r1, #4]
 8003656:	68cd      	ldr	r5, [r1, #12]
 8003658:	6a01      	ldr	r1, [r0, #32]
 800365a:	6a03      	ldr	r3, [r0, #32]
 800365c:	f021 010a 	bic.w	r1, r1, #10
 8003660:	f023 0301 	bic.w	r3, r3, #1
 8003664:	6203      	str	r3, [r0, #32]
 8003666:	6983      	ldr	r3, [r0, #24]
 8003668:	430a      	orrs	r2, r1
 800366a:	f023 03f0 	bic.w	r3, r3, #240	; 0xf0
 800366e:	ea43 1305 	orr.w	r3, r3, r5, lsl #4
 8003672:	6183      	str	r3, [r0, #24]
 8003674:	6202      	str	r2, [r0, #32]
 8003676:	6883      	ldr	r3, [r0, #8]
 8003678:	f023 0370 	bic.w	r3, r3, #112	; 0x70
 800367c:	f043 0357 	orr.w	r3, r3, #87	; 0x57
 8003680:	e00f      	b.n	80036a2 <HAL_TIM_ConfigClockSource+0xb8>
 8003682:	f5b3 5f80 	cmp.w	r3, #4096	; 0x1000
 8003686:	d00d      	beq.n	80036a4 <HAL_TIM_ConfigClockSource+0xba>
 8003688:	f5b3 5f00 	cmp.w	r3, #8192	; 0x2000
 800368c:	d00c      	beq.n	80036a8 <HAL_TIM_ConfigClockSource+0xbe>
 800368e:	2b70      	cmp	r3, #112	; 0x70
 8003690:	d1cd      	bne.n	800362e <HAL_TIM_ConfigClockSource+0x44>
 8003692:	68cb      	ldr	r3, [r1, #12]
 8003694:	e9d1 2101 	ldrd	r2, r1, [r1, #4]
 8003698:	f7ff ff9d 	bl	80035d6 <TIM_ETR_SetConfig>
 800369c:	6883      	ldr	r3, [r0, #8]
 800369e:	f043 0377 	orr.w	r3, r3, #119	; 0x77
 80036a2:	6083      	str	r3, [r0, #8]
 80036a4:	2200      	movs	r2, #0
 80036a6:	e7c2      	b.n	800362e <HAL_TIM_ConfigClockSource+0x44>
 80036a8:	68cb      	ldr	r3, [r1, #12]
 80036aa:	e9d1 2101 	ldrd	r2, r1, [r1, #4]
 80036ae:	f7ff ff92 	bl	80035d6 <TIM_ETR_SetConfig>
 80036b2:	6883      	ldr	r3, [r0, #8]
 80036b4:	f443 4380 	orr.w	r3, r3, #16384	; 0x4000
 80036b8:	e7f3      	b.n	80036a2 <HAL_TIM_ConfigClockSource+0xb8>
 80036ba:	6a03      	ldr	r3, [r0, #32]
 80036bc:	6a02      	ldr	r2, [r0, #32]
 80036be:	684d      	ldr	r5, [r1, #4]
 80036c0:	f022 0210 	bic.w	r2, r2, #16
 80036c4:	68c9      	ldr	r1, [r1, #12]
 80036c6:	6202      	str	r2, [r0, #32]
 80036c8:	6982      	ldr	r2, [r0, #24]
 80036ca:	f023 03a0 	bic.w	r3, r3, #160	; 0xa0
 80036ce:	f422 4270 	bic.w	r2, r2, #61440	; 0xf000
 80036d2:	ea43 1305 	orr.w	r3, r3, r5, lsl #4
 80036d6:	ea42 3201 	orr.w	r2, r2, r1, lsl #12
 80036da:	6182      	str	r2, [r0, #24]
 80036dc:	6203      	str	r3, [r0, #32]
 80036de:	6883      	ldr	r3, [r0, #8]
 80036e0:	f023 0370 	bic.w	r3, r3, #112	; 0x70
 80036e4:	f043 0367 	orr.w	r3, r3, #103	; 0x67
 80036e8:	e7db      	b.n	80036a2 <HAL_TIM_ConfigClockSource+0xb8>
 80036ea:	684a      	ldr	r2, [r1, #4]
 80036ec:	68cd      	ldr	r5, [r1, #12]
 80036ee:	6a01      	ldr	r1, [r0, #32]
 80036f0:	6a03      	ldr	r3, [r0, #32]
 80036f2:	f021 010a 	bic.w	r1, r1, #10
 80036f6:	f023 0301 	bic.w	r3, r3, #1
 80036fa:	6203      	str	r3, [r0, #32]
 80036fc:	6983      	ldr	r3, [r0, #24]
 80036fe:	430a      	orrs	r2, r1
 8003700:	f023 03f0 	bic.w	r3, r3, #240	; 0xf0
 8003704:	ea43 1305 	orr.w	r3, r3, r5, lsl #4
 8003708:	6183      	str	r3, [r0, #24]
 800370a:	6202      	str	r2, [r0, #32]
 800370c:	6883      	ldr	r3, [r0, #8]
 800370e:	f023 0370 	bic.w	r3, r3, #112	; 0x70
 8003712:	f043 0347 	orr.w	r3, r3, #71	; 0x47
 8003716:	e7c4      	b.n	80036a2 <HAL_TIM_ConfigClockSource+0xb8>
 8003718:	4602      	mov	r2, r0
 800371a:	e78e      	b.n	800363a <HAL_TIM_ConfigClockSource+0x50>

0800371c <TIM_CCxChannelCmd>:
 800371c:	b510      	push	{r4, lr}
 800371e:	2401      	movs	r4, #1
 8003720:	6a03      	ldr	r3, [r0, #32]
 8003722:	f001 011f 	and.w	r1, r1, #31
 8003726:	408c      	lsls	r4, r1
 8003728:	ea23 0304 	bic.w	r3, r3, r4
 800372c:	6203      	str	r3, [r0, #32]
 800372e:	6a03      	ldr	r3, [r0, #32]
 8003730:	408a      	lsls	r2, r1
 8003732:	431a      	orrs	r2, r3
 8003734:	6202      	str	r2, [r0, #32]
 8003736:	bd10      	pop	{r4, pc}

08003738 <HAL_TIM_OC_Start>:
 8003738:	b508      	push	{r3, lr}
 800373a:	b929      	cbnz	r1, 8003748 <HAL_TIM_OC_Start+0x10>
 800373c:	f890 303e 	ldrb.w	r3, [r0, #62]	; 0x3e
 8003740:	2b01      	cmp	r3, #1
 8003742:	d021      	beq.n	8003788 <HAL_TIM_OC_Start+0x50>
 8003744:	2001      	movs	r0, #1
 8003746:	bd08      	pop	{r3, pc}
 8003748:	2904      	cmp	r1, #4
 800374a:	d107      	bne.n	800375c <HAL_TIM_OC_Start+0x24>
 800374c:	f890 303f 	ldrb.w	r3, [r0, #63]	; 0x3f
 8003750:	2b01      	cmp	r3, #1
 8003752:	d1f7      	bne.n	8003744 <HAL_TIM_OC_Start+0xc>
 8003754:	2302      	movs	r3, #2
 8003756:	f880 303f 	strb.w	r3, [r0, #63]	; 0x3f
 800375a:	e018      	b.n	800378e <HAL_TIM_OC_Start+0x56>
 800375c:	2908      	cmp	r1, #8
 800375e:	d107      	bne.n	8003770 <HAL_TIM_OC_Start+0x38>
 8003760:	f890 3040 	ldrb.w	r3, [r0, #64]	; 0x40
 8003764:	2b01      	cmp	r3, #1
 8003766:	d1ed      	bne.n	8003744 <HAL_TIM_OC_Start+0xc>
 8003768:	2302      	movs	r3, #2
 800376a:	f880 3040 	strb.w	r3, [r0, #64]	; 0x40
 800376e:	e00e      	b.n	800378e <HAL_TIM_OC_Start+0x56>
 8003770:	f890 3041 	ldrb.w	r3, [r0, #65]	; 0x41
 8003774:	2b01      	cmp	r3, #1
 8003776:	d1e5      	bne.n	8003744 <HAL_TIM_OC_Start+0xc>
 8003778:	2904      	cmp	r1, #4
 800377a:	d0eb      	beq.n	8003754 <HAL_TIM_OC_Start+0x1c>
 800377c:	2908      	cmp	r1, #8
 800377e:	d0f3      	beq.n	8003768 <HAL_TIM_OC_Start+0x30>
 8003780:	2302      	movs	r3, #2
 8003782:	f880 3041 	strb.w	r3, [r0, #65]	; 0x41
 8003786:	e002      	b.n	800378e <HAL_TIM_OC_Start+0x56>
 8003788:	2302      	movs	r3, #2
 800378a:	f880 303e 	strb.w	r3, [r0, #62]	; 0x3e
 800378e:	6800      	ldr	r0, [r0, #0]
 8003790:	2201      	movs	r2, #1
 8003792:	f7ff ffc3 	bl	800371c <TIM_CCxChannelCmd>
 8003796:	4b0c      	ldr	r3, [pc, #48]	; (80037c8 <HAL_TIM_OC_Start+0x90>)
 8003798:	4298      	cmp	r0, r3
 800379a:	d10a      	bne.n	80037b2 <HAL_TIM_OC_Start+0x7a>
 800379c:	6c43      	ldr	r3, [r0, #68]	; 0x44
 800379e:	f443 4300 	orr.w	r3, r3, #32768	; 0x8000
 80037a2:	6443      	str	r3, [r0, #68]	; 0x44
 80037a4:	6883      	ldr	r3, [r0, #8]
 80037a6:	f003 0307 	and.w	r3, r3, #7
 80037aa:	2b06      	cmp	r3, #6
 80037ac:	d107      	bne.n	80037be <HAL_TIM_OC_Start+0x86>
 80037ae:	2000      	movs	r0, #0
 80037b0:	e7c9      	b.n	8003746 <HAL_TIM_OC_Start+0xe>
 80037b2:	f1b0 4f80 	cmp.w	r0, #1073741824	; 0x40000000
 80037b6:	d0f5      	beq.n	80037a4 <HAL_TIM_OC_Start+0x6c>
 80037b8:	4b04      	ldr	r3, [pc, #16]	; (80037cc <HAL_TIM_OC_Start+0x94>)
 80037ba:	4298      	cmp	r0, r3
 80037bc:	d0f2      	beq.n	80037a4 <HAL_TIM_OC_Start+0x6c>
 80037be:	6803      	ldr	r3, [r0, #0]
 80037c0:	f043 0301 	orr.w	r3, r3, #1
 80037c4:	6003      	str	r3, [r0, #0]
 80037c6:	e7f2      	b.n	80037ae <HAL_TIM_OC_Start+0x76>
 80037c8:	40012c00 	.word	0x40012c00
 80037cc:	40000400 	.word	0x40000400

080037d0 <HAL_TIM_OC_Stop>:
 80037d0:	b538      	push	{r3, r4, r5, lr}
 80037d2:	2200      	movs	r2, #0
 80037d4:	4604      	mov	r4, r0
 80037d6:	6800      	ldr	r0, [r0, #0]
 80037d8:	460d      	mov	r5, r1
 80037da:	f7ff ff9f 	bl	800371c <TIM_CCxChannelCmd>
 80037de:	4b18      	ldr	r3, [pc, #96]	; (8003840 <HAL_TIM_OC_Stop+0x70>)
 80037e0:	4298      	cmp	r0, r3
 80037e2:	d10d      	bne.n	8003800 <HAL_TIM_OC_Stop+0x30>
 80037e4:	f241 1311 	movw	r3, #4369	; 0x1111
 80037e8:	6a02      	ldr	r2, [r0, #32]
 80037ea:	421a      	tst	r2, r3
 80037ec:	d108      	bne.n	8003800 <HAL_TIM_OC_Stop+0x30>
 80037ee:	f240 4344 	movw	r3, #1092	; 0x444
 80037f2:	6a02      	ldr	r2, [r0, #32]
 80037f4:	421a      	tst	r2, r3
 80037f6:	bf02      	ittt	eq
 80037f8:	6c43      	ldreq	r3, [r0, #68]	; 0x44
 80037fa:	f423 4300 	biceq.w	r3, r3, #32768	; 0x8000
 80037fe:	6443      	streq	r3, [r0, #68]	; 0x44
 8003800:	f241 1311 	movw	r3, #4369	; 0x1111
 8003804:	6a02      	ldr	r2, [r0, #32]
 8003806:	421a      	tst	r2, r3
 8003808:	d108      	bne.n	800381c <HAL_TIM_OC_Stop+0x4c>
 800380a:	f240 4344 	movw	r3, #1092	; 0x444
 800380e:	6a02      	ldr	r2, [r0, #32]
 8003810:	421a      	tst	r2, r3
 8003812:	bf02      	ittt	eq
 8003814:	6803      	ldreq	r3, [r0, #0]
 8003816:	f023 0301 	biceq.w	r3, r3, #1
 800381a:	6003      	streq	r3, [r0, #0]
 800381c:	2301      	movs	r3, #1
 800381e:	b91d      	cbnz	r5, 8003828 <HAL_TIM_OC_Stop+0x58>
 8003820:	f884 303e 	strb.w	r3, [r4, #62]	; 0x3e
 8003824:	2000      	movs	r0, #0
 8003826:	bd38      	pop	{r3, r4, r5, pc}
 8003828:	2d04      	cmp	r5, #4
 800382a:	d102      	bne.n	8003832 <HAL_TIM_OC_Stop+0x62>
 800382c:	f884 303f 	strb.w	r3, [r4, #63]	; 0x3f
 8003830:	e7f8      	b.n	8003824 <HAL_TIM_OC_Stop+0x54>
 8003832:	2d08      	cmp	r5, #8
 8003834:	bf0c      	ite	eq
 8003836:	f884 3040 	strbeq.w	r3, [r4, #64]	; 0x40
 800383a:	f884 3041 	strbne.w	r3, [r4, #65]	; 0x41
 800383e:	e7f1      	b.n	8003824 <HAL_TIM_OC_Stop+0x54>
 8003840:	40012c00 	.word	0x40012c00

08003844 <HAL_TIMEx_MasterConfigSynchronization>:
 8003844:	b530      	push	{r4, r5, lr}
 8003846:	f890 203c 	ldrb.w	r2, [r0, #60]	; 0x3c
 800384a:	4603      	mov	r3, r0
 800384c:	2a01      	cmp	r2, #1
 800384e:	f04f 0002 	mov.w	r0, #2
 8003852:	d01e      	beq.n	8003892 <HAL_TIMEx_MasterConfigSynchronization+0x4e>
 8003854:	681a      	ldr	r2, [r3, #0]
 8003856:	f883 003d 	strb.w	r0, [r3, #61]	; 0x3d
 800385a:	6854      	ldr	r4, [r2, #4]
 800385c:	680d      	ldr	r5, [r1, #0]
 800385e:	f024 0470 	bic.w	r4, r4, #112	; 0x70
 8003862:	432c      	orrs	r4, r5
 8003864:	6890      	ldr	r0, [r2, #8]
 8003866:	6054      	str	r4, [r2, #4]
 8003868:	4c0a      	ldr	r4, [pc, #40]	; (8003894 <HAL_TIMEx_MasterConfigSynchronization+0x50>)
 800386a:	42a2      	cmp	r2, r4
 800386c:	d006      	beq.n	800387c <HAL_TIMEx_MasterConfigSynchronization+0x38>
 800386e:	f1b2 4f80 	cmp.w	r2, #1073741824	; 0x40000000
 8003872:	d003      	beq.n	800387c <HAL_TIMEx_MasterConfigSynchronization+0x38>
 8003874:	f5a4 3494 	sub.w	r4, r4, #75776	; 0x12800
 8003878:	42a2      	cmp	r2, r4
 800387a:	d104      	bne.n	8003886 <HAL_TIMEx_MasterConfigSynchronization+0x42>
 800387c:	6849      	ldr	r1, [r1, #4]
 800387e:	f020 0080 	bic.w	r0, r0, #128	; 0x80
 8003882:	4301      	orrs	r1, r0
 8003884:	6091      	str	r1, [r2, #8]
 8003886:	2201      	movs	r2, #1
 8003888:	2000      	movs	r0, #0
 800388a:	f883 203d 	strb.w	r2, [r3, #61]	; 0x3d
 800388e:	f883 003c 	strb.w	r0, [r3, #60]	; 0x3c
 8003892:	bd30      	pop	{r4, r5, pc}
 8003894:	40012c00 	.word	0x40012c00

08003898 <HAL_TIMEx_CommutCallback>:
 8003898:	4770      	bx	lr

0800389a <HAL_TIMEx_BreakCallback>:
 800389a:	4770      	bx	lr

0800389c <UART_SetConfig>:
 800389c:	b510      	push	{r4, lr}
 800389e:	4604      	mov	r4, r0
 80038a0:	6803      	ldr	r3, [r0, #0]
 80038a2:	68c1      	ldr	r1, [r0, #12]
 80038a4:	691a      	ldr	r2, [r3, #16]
 80038a6:	f422 5240 	bic.w	r2, r2, #12288	; 0x3000
 80038aa:	430a      	orrs	r2, r1
 80038ac:	611a      	str	r2, [r3, #16]
 80038ae:	6882      	ldr	r2, [r0, #8]
 80038b0:	6900      	ldr	r0, [r0, #16]
 80038b2:	68d9      	ldr	r1, [r3, #12]
 80038b4:	4302      	orrs	r2, r0
 80038b6:	6960      	ldr	r0, [r4, #20]
 80038b8:	f421 51b0 	bic.w	r1, r1, #5632	; 0x1600
 80038bc:	f021 010c 	bic.w	r1, r1, #12
 80038c0:	4302      	orrs	r2, r0
 80038c2:	430a      	orrs	r2, r1
 80038c4:	60da      	str	r2, [r3, #12]
 80038c6:	695a      	ldr	r2, [r3, #20]
 80038c8:	69a1      	ldr	r1, [r4, #24]
 80038ca:	f422 7240 	bic.w	r2, r2, #768	; 0x300
 80038ce:	430a      	orrs	r2, r1
 80038d0:	615a      	str	r2, [r3, #20]
 80038d2:	4a0e      	ldr	r2, [pc, #56]	; (800390c <UART_SetConfig+0x70>)
 80038d4:	4293      	cmp	r3, r2
 80038d6:	d115      	bne.n	8003904 <UART_SetConfig+0x68>
 80038d8:	f7ff fb44 	bl	8002f64 <HAL_RCC_GetPCLK2Freq>
 80038dc:	2319      	movs	r3, #25
 80038de:	4343      	muls	r3, r0
 80038e0:	6862      	ldr	r2, [r4, #4]
 80038e2:	6820      	ldr	r0, [r4, #0]
 80038e4:	0092      	lsls	r2, r2, #2
 80038e6:	fbb3 f3f2 	udiv	r3, r3, r2
 80038ea:	2264      	movs	r2, #100	; 0x64
 80038ec:	fbb3 f1f2 	udiv	r1, r3, r2
 80038f0:	fb02 3311 	mls	r3, r2, r1, r3
 80038f4:	011b      	lsls	r3, r3, #4
 80038f6:	3332      	adds	r3, #50	; 0x32
 80038f8:	fbb3 f3f2 	udiv	r3, r3, r2
 80038fc:	eb03 1301 	add.w	r3, r3, r1, lsl #4
 8003900:	6083      	str	r3, [r0, #8]
 8003902:	bd10      	pop	{r4, pc}
 8003904:	f7ff fb1e 	bl	8002f44 <HAL_RCC_GetPCLK1Freq>
 8003908:	e7e8      	b.n	80038dc <UART_SetConfig+0x40>
 800390a:	bf00      	nop
 800390c:	40013800 	.word	0x40013800

08003910 <UART_WaitOnFlagUntilTimeout.constprop.0>:
 8003910:	b5f8      	push	{r3, r4, r5, r6, r7, lr}
 8003912:	4604      	mov	r4, r0
 8003914:	460e      	mov	r6, r1
 8003916:	4617      	mov	r7, r2
 8003918:	461d      	mov	r5, r3
 800391a:	6822      	ldr	r2, [r4, #0]
 800391c:	6813      	ldr	r3, [r2, #0]
 800391e:	ea36 0303 	bics.w	r3, r6, r3
 8003922:	d101      	bne.n	8003928 <UART_WaitOnFlagUntilTimeout.constprop.0+0x18>
 8003924:	2000      	movs	r0, #0
 8003926:	e028      	b.n	800397a <UART_WaitOnFlagUntilTimeout.constprop.0+0x6a>
 8003928:	1c6b      	adds	r3, r5, #1
 800392a:	d0f7      	beq.n	800391c <UART_WaitOnFlagUntilTimeout.constprop.0+0xc>
 800392c:	b125      	cbz	r5, 8003938 <UART_WaitOnFlagUntilTimeout.constprop.0+0x28>
 800392e:	f7fe f819 	bl	8001964 <HAL_GetTick>
 8003932:	1bc0      	subs	r0, r0, r7
 8003934:	4285      	cmp	r5, r0
 8003936:	d2f0      	bcs.n	800391a <UART_WaitOnFlagUntilTimeout.constprop.0+0xa>
 8003938:	6822      	ldr	r2, [r4, #0]
 800393a:	f102 030c 	add.w	r3, r2, #12
 800393e:	e853 3f00 	ldrex	r3, [r3]
 8003942:	f423 73d0 	bic.w	r3, r3, #416	; 0x1a0
 8003946:	320c      	adds	r2, #12
 8003948:	e842 3000 	strex	r0, r3, [r2]
 800394c:	6821      	ldr	r1, [r4, #0]
 800394e:	2800      	cmp	r0, #0
 8003950:	d1f2      	bne.n	8003938 <UART_WaitOnFlagUntilTimeout.constprop.0+0x28>
 8003952:	f101 0314 	add.w	r3, r1, #20
 8003956:	e853 3f00 	ldrex	r3, [r3]
 800395a:	f023 0301 	bic.w	r3, r3, #1
 800395e:	f101 0014 	add.w	r0, r1, #20
 8003962:	e840 3200 	strex	r2, r3, [r0]
 8003966:	2a00      	cmp	r2, #0
 8003968:	d1f3      	bne.n	8003952 <UART_WaitOnFlagUntilTimeout.constprop.0+0x42>
 800396a:	2320      	movs	r3, #32
 800396c:	2003      	movs	r0, #3
 800396e:	f884 3041 	strb.w	r3, [r4, #65]	; 0x41
 8003972:	f884 2040 	strb.w	r2, [r4, #64]	; 0x40
 8003976:	f884 3042 	strb.w	r3, [r4, #66]	; 0x42
 800397a:	bdf8      	pop	{r3, r4, r5, r6, r7, pc}

0800397c <HAL_UART_Init>:
 800397c:	b510      	push	{r4, lr}
 800397e:	4604      	mov	r4, r0
 8003980:	b348      	cbz	r0, 80039d6 <HAL_UART_Init+0x5a>
 8003982:	f890 3041 	ldrb.w	r3, [r0, #65]	; 0x41
 8003986:	f003 02ff 	and.w	r2, r3, #255	; 0xff
 800398a:	b91b      	cbnz	r3, 8003994 <HAL_UART_Init+0x18>
 800398c:	f880 2040 	strb.w	r2, [r0, #64]	; 0x40
 8003990:	f7fd ff14 	bl	80017bc <HAL_UART_MspInit>
 8003994:	2324      	movs	r3, #36	; 0x24
 8003996:	6822      	ldr	r2, [r4, #0]
 8003998:	f884 3041 	strb.w	r3, [r4, #65]	; 0x41
 800399c:	68d3      	ldr	r3, [r2, #12]
 800399e:	4620      	mov	r0, r4
 80039a0:	f423 5300 	bic.w	r3, r3, #8192	; 0x2000
 80039a4:	60d3      	str	r3, [r2, #12]
 80039a6:	f7ff ff79 	bl	800389c <UART_SetConfig>
 80039aa:	6823      	ldr	r3, [r4, #0]
 80039ac:	2000      	movs	r0, #0
 80039ae:	691a      	ldr	r2, [r3, #16]
 80039b0:	f422 4290 	bic.w	r2, r2, #18432	; 0x4800
 80039b4:	611a      	str	r2, [r3, #16]
 80039b6:	695a      	ldr	r2, [r3, #20]
 80039b8:	f022 022a 	bic.w	r2, r2, #42	; 0x2a
 80039bc:	615a      	str	r2, [r3, #20]
 80039be:	68da      	ldr	r2, [r3, #12]
 80039c0:	f442 5200 	orr.w	r2, r2, #8192	; 0x2000
 80039c4:	60da      	str	r2, [r3, #12]
 80039c6:	2320      	movs	r3, #32
 80039c8:	6460      	str	r0, [r4, #68]	; 0x44
 80039ca:	f884 3041 	strb.w	r3, [r4, #65]	; 0x41
 80039ce:	f884 3042 	strb.w	r3, [r4, #66]	; 0x42
 80039d2:	6360      	str	r0, [r4, #52]	; 0x34
 80039d4:	bd10      	pop	{r4, pc}
 80039d6:	2001      	movs	r0, #1
 80039d8:	e7fc      	b.n	80039d4 <HAL_UART_Init+0x58>

080039da <HAL_UART_Transmit>:
 80039da:	e92d 43f8 	stmdb	sp!, {r3, r4, r5, r6, r7, r8, r9, lr}
 80039de:	4699      	mov	r9, r3
 80039e0:	f890 3041 	ldrb.w	r3, [r0, #65]	; 0x41
 80039e4:	4604      	mov	r4, r0
 80039e6:	2b20      	cmp	r3, #32
 80039e8:	460e      	mov	r6, r1
 80039ea:	4617      	mov	r7, r2
 80039ec:	d13c      	bne.n	8003a68 <HAL_UART_Transmit+0x8e>
 80039ee:	2900      	cmp	r1, #0
 80039f0:	d03c      	beq.n	8003a6c <HAL_UART_Transmit+0x92>
 80039f2:	2a00      	cmp	r2, #0
 80039f4:	d03a      	beq.n	8003a6c <HAL_UART_Transmit+0x92>
 80039f6:	2321      	movs	r3, #33	; 0x21
 80039f8:	2500      	movs	r5, #0
 80039fa:	6445      	str	r5, [r0, #68]	; 0x44
 80039fc:	f880 3041 	strb.w	r3, [r0, #65]	; 0x41
 8003a00:	f7fd ffb0 	bl	8001964 <HAL_GetTick>
 8003a04:	68a3      	ldr	r3, [r4, #8]
 8003a06:	4680      	mov	r8, r0
 8003a08:	f5b3 5f80 	cmp.w	r3, #4096	; 0x1000
 8003a0c:	84a7      	strh	r7, [r4, #36]	; 0x24
 8003a0e:	84e7      	strh	r7, [r4, #38]	; 0x26
 8003a10:	d103      	bne.n	8003a1a <HAL_UART_Transmit+0x40>
 8003a12:	6923      	ldr	r3, [r4, #16]
 8003a14:	b90b      	cbnz	r3, 8003a1a <HAL_UART_Transmit+0x40>
 8003a16:	4635      	mov	r5, r6
 8003a18:	461e      	mov	r6, r3
 8003a1a:	8ce3      	ldrh	r3, [r4, #38]	; 0x26
 8003a1c:	b29b      	uxth	r3, r3
 8003a1e:	b953      	cbnz	r3, 8003a36 <HAL_UART_Transmit+0x5c>
 8003a20:	464b      	mov	r3, r9
 8003a22:	4642      	mov	r2, r8
 8003a24:	2140      	movs	r1, #64	; 0x40
 8003a26:	4620      	mov	r0, r4
 8003a28:	f7ff ff72 	bl	8003910 <UART_WaitOnFlagUntilTimeout.constprop.0>
 8003a2c:	b950      	cbnz	r0, 8003a44 <HAL_UART_Transmit+0x6a>
 8003a2e:	2320      	movs	r3, #32
 8003a30:	f884 3041 	strb.w	r3, [r4, #65]	; 0x41
 8003a34:	e007      	b.n	8003a46 <HAL_UART_Transmit+0x6c>
 8003a36:	464b      	mov	r3, r9
 8003a38:	4642      	mov	r2, r8
 8003a3a:	2180      	movs	r1, #128	; 0x80
 8003a3c:	4620      	mov	r0, r4
 8003a3e:	f7ff ff67 	bl	8003910 <UART_WaitOnFlagUntilTimeout.constprop.0>
 8003a42:	b110      	cbz	r0, 8003a4a <HAL_UART_Transmit+0x70>
 8003a44:	2003      	movs	r0, #3
 8003a46:	e8bd 83f8 	ldmia.w	sp!, {r3, r4, r5, r6, r7, r8, r9, pc}
 8003a4a:	6822      	ldr	r2, [r4, #0]
 8003a4c:	b94e      	cbnz	r6, 8003a62 <HAL_UART_Transmit+0x88>
 8003a4e:	f835 3b02 	ldrh.w	r3, [r5], #2
 8003a52:	f3c3 0308 	ubfx	r3, r3, #0, #9
 8003a56:	6053      	str	r3, [r2, #4]
 8003a58:	8ce1      	ldrh	r1, [r4, #38]	; 0x26
 8003a5a:	3901      	subs	r1, #1
 8003a5c:	b289      	uxth	r1, r1
 8003a5e:	84e1      	strh	r1, [r4, #38]	; 0x26
 8003a60:	e7db      	b.n	8003a1a <HAL_UART_Transmit+0x40>
 8003a62:	f816 3b01 	ldrb.w	r3, [r6], #1
 8003a66:	e7f6      	b.n	8003a56 <HAL_UART_Transmit+0x7c>
 8003a68:	2002      	movs	r0, #2
 8003a6a:	e7ec      	b.n	8003a46 <HAL_UART_Transmit+0x6c>
 8003a6c:	2001      	movs	r0, #1
 8003a6e:	e7ea      	b.n	8003a46 <HAL_UART_Transmit+0x6c>

08003a70 <memset>:
 8003a70:	4603      	mov	r3, r0
 8003a72:	4402      	add	r2, r0
 8003a74:	4293      	cmp	r3, r2
 8003a76:	d100      	bne.n	8003a7a <memset+0xa>
 8003a78:	4770      	bx	lr
 8003a7a:	f803 1b01 	strb.w	r1, [r3], #1
 8003a7e:	e7f9      	b.n	8003a74 <memset+0x4>

08003a80 <__libc_init_array>:
 8003a80:	b570      	push	{r4, r5, r6, lr}
 8003a82:	2600      	movs	r6, #0
 8003a84:	4d0c      	ldr	r5, [pc, #48]	; (8003ab8 <__libc_init_array+0x38>)
 8003a86:	4c0d      	ldr	r4, [pc, #52]	; (8003abc <__libc_init_array+0x3c>)
 8003a88:	1b64      	subs	r4, r4, r5
 8003a8a:	10a4      	asrs	r4, r4, #2
 8003a8c:	42a6      	cmp	r6, r4
 8003a8e:	d109      	bne.n	8003aa4 <__libc_init_array+0x24>
 8003a90:	f000 f822 	bl	8003ad8 <_init>
 8003a94:	2600      	movs	r6, #0
 8003a96:	4d0a      	ldr	r5, [pc, #40]	; (8003ac0 <__libc_init_array+0x40>)
 8003a98:	4c0a      	ldr	r4, [pc, #40]	; (8003ac4 <__libc_init_array+0x44>)
 8003a9a:	1b64      	subs	r4, r4, r5
 8003a9c:	10a4      	asrs	r4, r4, #2
 8003a9e:	42a6      	cmp	r6, r4
 8003aa0:	d105      	bne.n	8003aae <__libc_init_array+0x2e>
 8003aa2:	bd70      	pop	{r4, r5, r6, pc}
 8003aa4:	f855 3b04 	ldr.w	r3, [r5], #4
 8003aa8:	4798      	blx	r3
 8003aaa:	3601      	adds	r6, #1
 8003aac:	e7ee      	b.n	8003a8c <__libc_init_array+0xc>
 8003aae:	f855 3b04 	ldr.w	r3, [r5], #4
 8003ab2:	4798      	blx	r3
 8003ab4:	3601      	adds	r6, #1
 8003ab6:	e7f2      	b.n	8003a9e <__libc_init_array+0x1e>
 8003ab8:	08003b48 	.word	0x08003b48
 8003abc:	08003b48 	.word	0x08003b48
 8003ac0:	08003b48 	.word	0x08003b48
 8003ac4:	08003b4c 	.word	0x08003b4c

08003ac8 <strcpy>:
 8003ac8:	4603      	mov	r3, r0
 8003aca:	f811 2b01 	ldrb.w	r2, [r1], #1
 8003ace:	f803 2b01 	strb.w	r2, [r3], #1
 8003ad2:	2a00      	cmp	r2, #0
 8003ad4:	d1f9      	bne.n	8003aca <strcpy+0x2>
 8003ad6:	4770      	bx	lr

08003ad8 <_init>:
 8003ad8:	b5f8      	push	{r3, r4, r5, r6, r7, lr}
 8003ada:	bf00      	nop
 8003adc:	bcf8      	pop	{r3, r4, r5, r6, r7}
 8003ade:	bc08      	pop	{r3}
 8003ae0:	469e      	mov	lr, r3
 8003ae2:	4770      	bx	lr

08003ae4 <_fini>:
 8003ae4:	b5f8      	push	{r3, r4, r5, r6, r7, lr}
 8003ae6:	bf00      	nop
 8003ae8:	bcf8      	pop	{r3, r4, r5, r6, r7}
 8003aea:	bc08      	pop	{r3}
 8003aec:	469e      	mov	lr, r3
 8003aee:	4770      	bx	lr
